ARM GAS  C:\Users\lab512\AppData\Local\Temp\ccrLSUYR.s 			page 1


   1              		.syntax unified
   2              		.cpu cortex-m3
   3              		.fpu softvfp
   4              		.eabi_attribute 20, 1
   5              		.eabi_attribute 21, 1
   6              		.eabi_attribute 23, 3
   7              		.eabi_attribute 24, 1
   8              		.eabi_attribute 25, 1
   9              		.eabi_attribute 26, 1
  10              		.eabi_attribute 30, 1
  11              		.eabi_attribute 34, 1
  12              		.eabi_attribute 18, 4
  13              		.thumb
  14              		.syntax unified
  15              		.file	"Antman.c"
  16              		.text
  17              	.Ltext0:
  18              		.cfi_sections	.debug_frame
  19              		.section	.text.antman_init,"ax",%progbits
  20              		.align	2
  21              		.global	antman_init
  22              		.thumb
  23              		.thumb_func
  24              		.type	antman_init, %function
  25              	antman_init:
  26              	.LFB63:
  27              		.file 1 "Antman.c"
   1:Antman.c      **** /* ========================================
   2:Antman.c      ****  *
   3:Antman.c      ****  * Copyright YOUR COMPANY, THE YEAR
   4:Antman.c      ****  * All Rights Reserved
   5:Antman.c      ****  * UNPUBLISHED, LICENSED SOFTWARE.
   6:Antman.c      ****  *
   7:Antman.c      ****  * CONFIDENTIAL AND PROPRIETARY INFORMATION
   8:Antman.c      ****  * WHICH IS THE PROPERTY OF your company.
   9:Antman.c      ****  *
  10:Antman.c      ****  * ========================================
  11:Antman.c      **** */
  12:Antman.c      **** 
  13:Antman.c      **** #include <project.h>
  14:Antman.c      **** #include "defs.h"
  15:Antman.c      **** #include "param.h"
  16:Antman.c      **** 
  17:Antman.c      **** 
  18:Antman.c      **** int state = ANTMAN_STATUS_LOST;
  19:Antman.c      **** 
  20:Antman.c      **** void antman_init(){
  28              		.loc 1 20 0
  29              		.cfi_startproc
  30              		@ args = 0, pretend = 0, frame = 0
  31              		@ frame_needed = 0, uses_anonymous_args = 0
  32              		@ link register save eliminated.
  21:Antman.c      ****     state = ANTMAN_STATUS_LOST;
  33              		.loc 1 21 0
  34 0000 0022     		movs	r2, #0
  35 0002 014B     		ldr	r3, .L2
  36 0004 1A60     		str	r2, [r3]
ARM GAS  C:\Users\lab512\AppData\Local\Temp\ccrLSUYR.s 			page 2


  37 0006 7047     		bx	lr
  38              	.L3:
  39              		.align	2
  40              	.L2:
  41 0008 00000000 		.word	.LANCHOR0
  42              		.cfi_endproc
  43              	.LFE63:
  44              		.size	antman_init, .-antman_init
  45              		.section	.text.antman,"ax",%progbits
  46              		.align	2
  47              		.global	antman
  48              		.thumb
  49              		.thumb_func
  50              		.type	antman, %function
  51              	antman:
  52              	.LFB64:
  22:Antman.c      **** }
  23:Antman.c      **** 
  24:Antman.c      **** void antman(int d1, int d2, int velocity){
  53              		.loc 1 24 0
  54              		.cfi_startproc
  55              		@ args = 0, pretend = 0, frame = 0
  56              		@ frame_needed = 0, uses_anonymous_args = 0
  57              	.LVL0:
  58 0000 F8B5     		push	{r3, r4, r5, r6, r7, lr}
  59              		.cfi_def_cfa_offset 24
  60              		.cfi_offset 3, -24
  61              		.cfi_offset 4, -20
  62              		.cfi_offset 5, -16
  63              		.cfi_offset 6, -12
  64              		.cfi_offset 7, -8
  65              		.cfi_offset 14, -4
  66 0002 0546     		mov	r5, r0
  67 0004 0F46     		mov	r7, r1
  68 0006 1646     		mov	r6, r2
  25:Antman.c      **** 
  26:Antman.c      ****     LCD_Position(1, 8);
  69              		.loc 1 26 0
  70 0008 0821     		movs	r1, #8
  71              	.LVL1:
  72 000a 0120     		movs	r0, #1
  73              	.LVL2:
  74 000c FFF7FEFF 		bl	LCD_Position
  75              	.LVL3:
  27:Antman.c      ****     LCD_PrintInt32(state);
  76              		.loc 1 27 0
  77 0010 2A4C     		ldr	r4, .L15
  78 0012 2068     		ldr	r0, [r4]
  79 0014 FFF7FEFF 		bl	LCD_PrintInt32
  80              	.LVL4:
  28:Antman.c      **** 
  29:Antman.c      ****     if(state == ANTMAN_STATUS_LOST){
  81              		.loc 1 29 0
  82 0018 2368     		ldr	r3, [r4]
  83 001a 7BB9     		cbnz	r3, .L5
  30:Antman.c      ****         go_forward(velocity);
  84              		.loc 1 30 0
ARM GAS  C:\Users\lab512\AppData\Local\Temp\ccrLSUYR.s 			page 3


  85 001c 30B2     		sxth	r0, r6
  86 001e FFF7FEFF 		bl	go_forward
  87              	.LVL5:
  31:Antman.c      ****         if(d1 < ANTMAN_THRESHOLD){
  88              		.loc 1 31 0
  89 0022 B5F5A06F 		cmp	r5, #1280
  90 0026 02DA     		bge	.L6
  32:Antman.c      ****             state = ANTMAN_STATUS_ESCAPE;
  91              		.loc 1 32 0
  92 0028 0322     		movs	r2, #3
  93 002a 2260     		str	r2, [r4]
  94 002c F8BD     		pop	{r3, r4, r5, r6, r7, pc}
  95              	.LVL6:
  96              	.L6:
  33:Antman.c      ****         }
  34:Antman.c      ****         else if (d2 < ANTMAN_THRESHOLD){
  97              		.loc 1 34 0
  98 002e B7F5A06F 		cmp	r7, #1280
  99 0032 41DA     		bge	.L4
  35:Antman.c      ****             state = ANTMAN_STATUS_DISTANCE;
 100              		.loc 1 35 0
 101 0034 0222     		movs	r2, #2
 102 0036 214B     		ldr	r3, .L15
 103 0038 1A60     		str	r2, [r3]
 104 003a F8BD     		pop	{r3, r4, r5, r6, r7, pc}
 105              	.LVL7:
 106              	.L5:
  36:Antman.c      ****         }
  37:Antman.c      ****     }
  38:Antman.c      ****     else if (state == ANTMAN_STATUS_APPROACH){
 107              		.loc 1 38 0
 108 003c 012B     		cmp	r3, #1
 109 003e 11D1     		bne	.L8
  39:Antman.c      ****         turn_right_precise(velocity, ANTMAN_ALPHA);
 110              		.loc 1 39 0
 111 0040 1F49     		ldr	r1, .L15+4
 112 0042 30B2     		sxth	r0, r6
 113 0044 FFF7FEFF 		bl	turn_right_precise
 114              	.LVL8:
  40:Antman.c      ****         if(d1 < ANTMAN_THRESHOLD){
 115              		.loc 1 40 0
 116 0048 B5F5A06F 		cmp	r5, #1280
 117 004c 03DA     		bge	.L9
  41:Antman.c      ****             state = ANTMAN_STATUS_ESCAPE;
 118              		.loc 1 41 0
 119 004e 0322     		movs	r2, #3
 120 0050 1A4B     		ldr	r3, .L15
 121 0052 1A60     		str	r2, [r3]
 122 0054 F8BD     		pop	{r3, r4, r5, r6, r7, pc}
 123              	.LVL9:
 124              	.L9:
  42:Antman.c      ****         }
  43:Antman.c      ****         else if (d2 < ANTMAN_THRESHOLD){
 125              		.loc 1 43 0
 126 0056 B7F5A06F 		cmp	r7, #1280
 127 005a 2DDA     		bge	.L4
  44:Antman.c      ****             state = ANTMAN_STATUS_DISTANCE;
ARM GAS  C:\Users\lab512\AppData\Local\Temp\ccrLSUYR.s 			page 4


 128              		.loc 1 44 0
 129 005c 0222     		movs	r2, #2
 130 005e 174B     		ldr	r3, .L15
 131 0060 1A60     		str	r2, [r3]
 132 0062 F8BD     		pop	{r3, r4, r5, r6, r7, pc}
 133              	.LVL10:
 134              	.L8:
  45:Antman.c      ****         }
  46:Antman.c      ****     }
  47:Antman.c      ****     else if (state == ANTMAN_STATUS_DISTANCE){
 135              		.loc 1 47 0
 136 0064 022B     		cmp	r3, #2
 137 0066 11D1     		bne	.L10
  48:Antman.c      ****         turn_left_precise(velocity, ANTMAN_BETA);
 138              		.loc 1 48 0
 139 0068 1649     		ldr	r1, .L15+8
 140 006a 30B2     		sxth	r0, r6
 141 006c FFF7FEFF 		bl	turn_left_precise
 142              	.LVL11:
  49:Antman.c      ****         if(d1 < ANTMAN_THRESHOLD){
 143              		.loc 1 49 0
 144 0070 B5F5A06F 		cmp	r5, #1280
 145 0074 03DA     		bge	.L11
  50:Antman.c      ****             state = ANTMAN_STATUS_ESCAPE;
 146              		.loc 1 50 0
 147 0076 0322     		movs	r2, #3
 148 0078 104B     		ldr	r3, .L15
 149 007a 1A60     		str	r2, [r3]
 150 007c F8BD     		pop	{r3, r4, r5, r6, r7, pc}
 151              	.LVL12:
 152              	.L11:
  51:Antman.c      ****         }
  52:Antman.c      ****         else if (d2 > ANTMAN_THRESHOLD + ANTMAN_HYSTERESIS){
 153              		.loc 1 52 0
 154 007e B7F5AA6F 		cmp	r7, #1360
 155 0082 19DD     		ble	.L4
  53:Antman.c      ****             state = ANTMAN_STATUS_APPROACH;
 156              		.loc 1 53 0
 157 0084 0122     		movs	r2, #1
 158 0086 0D4B     		ldr	r3, .L15
 159 0088 1A60     		str	r2, [r3]
 160 008a F8BD     		pop	{r3, r4, r5, r6, r7, pc}
 161              	.LVL13:
 162              	.L10:
  54:Antman.c      ****         }
  55:Antman.c      ****     }
  56:Antman.c      ****     else if (state == ANTMAN_STATUS_ESCAPE){
 163              		.loc 1 56 0
 164 008c 032B     		cmp	r3, #3
 165 008e 10D1     		bne	.L12
  57:Antman.c      ****         turn_left(velocity);
 166              		.loc 1 57 0
 167 0090 30B2     		sxth	r0, r6
 168 0092 FFF7FEFF 		bl	turn_left
 169              	.LVL14:
  58:Antman.c      ****         if(d1 > ANTMAN_THRESHOLD + ANTMAN_HYSTERESIS){
 170              		.loc 1 58 0
ARM GAS  C:\Users\lab512\AppData\Local\Temp\ccrLSUYR.s 			page 5


 171 0096 B5F5AA6F 		cmp	r5, #1360
 172 009a 0DDD     		ble	.L4
  59:Antman.c      ****             if (d2 > ANTMAN_THRESHOLD){
 173              		.loc 1 59 0
 174 009c B7F5A06F 		cmp	r7, #1280
 175 00a0 03DD     		ble	.L13
  60:Antman.c      ****                 state = ANTMAN_STATUS_APPROACH;
 176              		.loc 1 60 0
 177 00a2 0122     		movs	r2, #1
 178 00a4 054B     		ldr	r3, .L15
 179 00a6 1A60     		str	r2, [r3]
 180 00a8 F8BD     		pop	{r3, r4, r5, r6, r7, pc}
 181              	.LVL15:
 182              	.L13:
  61:Antman.c      ****             }
  62:Antman.c      ****             else{
  63:Antman.c      ****                 state = ANTMAN_STATUS_DISTANCE;
 183              		.loc 1 63 0
 184 00aa 0222     		movs	r2, #2
 185 00ac 034B     		ldr	r3, .L15
 186 00ae 1A60     		str	r2, [r3]
 187 00b0 F8BD     		pop	{r3, r4, r5, r6, r7, pc}
 188              	.LVL16:
 189              	.L12:
  64:Antman.c      ****             }
  65:Antman.c      ****         }
  66:Antman.c      ****     }
  67:Antman.c      ****     else{
  68:Antman.c      ****         state = ANTMAN_STATUS_LOST;
 190              		.loc 1 68 0
 191 00b2 0022     		movs	r2, #0
 192 00b4 014B     		ldr	r3, .L15
 193 00b6 1A60     		str	r2, [r3]
 194              	.L4:
 195 00b8 F8BD     		pop	{r3, r4, r5, r6, r7, pc}
 196              	.LVL17:
 197              	.L16:
 198 00ba 00BF     		.align	2
 199              	.L15:
 200 00bc 00000000 		.word	.LANCHOR0
 201 00c0 3333333F 		.word	1060320051
 202 00c4 000080BF 		.word	-1082130432
 203              		.cfi_endproc
 204              	.LFE64:
 205              		.size	antman, .-antman
 206              		.global	state
 207              		.bss
 208              		.align	2
 209              		.set	.LANCHOR0,. + 0
 210              		.type	state, %object
 211              		.size	state, 4
 212              	state:
 213 0000 00000000 		.space	4
 214              		.text
 215              	.Letext0:
 216              		.file 2 "d:\\psoccreator4.2\\psoc creator\\4.2\\psoc creator\\import\\gnu\\arm\\5.4.1\\arm-none-ea
 217              		.file 3 "d:\\psoccreator4.2\\psoc creator\\4.2\\psoc creator\\import\\gnu\\arm\\5.4.1\\arm-none-ea
ARM GAS  C:\Users\lab512\AppData\Local\Temp\ccrLSUYR.s 			page 6


 218              		.file 4 "Generated_Source\\PSoC5/core_cm3.h"
 219              		.file 5 "Generated_Source\\PSoC5/LCD.h"
 220              		.file 6 "defs.h"