ARM GAS  C:\Users\lab512\AppData\Local\Temp\cc9h7r2A.s 			page 1


   1              		.syntax unified
   2              		.cpu cortex-m3
   3              		.fpu softvfp
   4              		.eabi_attribute 20, 1
   5              		.eabi_attribute 21, 1
   6              		.eabi_attribute 23, 3
   7              		.eabi_attribute 24, 1
   8              		.eabi_attribute 25, 1
   9              		.eabi_attribute 26, 1
  10              		.eabi_attribute 30, 1
  11              		.eabi_attribute 34, 1
  12              		.eabi_attribute 18, 4
  13              		.thumb
  14              		.syntax unified
  15              		.file	"Driving.c"
  16              		.text
  17              	.Ltext0:
  18              		.cfi_sections	.debug_frame
  19              		.section	.text.servos_motormode,"ax",%progbits
  20              		.align	2
  21              		.global	servos_motormode
  22              		.thumb
  23              		.thumb_func
  24              		.type	servos_motormode, %function
  25              	servos_motormode:
  26              	.LFB63:
  27              		.file 1 "Driving.c"
   1:Driving.c     **** /* ========================================
   2:Driving.c     ****  *
   3:Driving.c     ****  * Copyright YOUR COMPANY, THE YEAR
   4:Driving.c     ****  * All Rights Reserved
   5:Driving.c     ****  * UNPUBLISHED, LICENSED SOFTWARE.
   6:Driving.c     ****  *
   7:Driving.c     ****  * CONFIDENTIAL AND PROPRIETARY INFORMATION
   8:Driving.c     ****  * WHICH IS THE PROPERTY OF your company.
   9:Driving.c     ****  *
  10:Driving.c     ****  * ========================================
  11:Driving.c     **** */
  12:Driving.c     **** 
  13:Driving.c     **** #include <project.h>
  14:Driving.c     **** #include "defs.h"
  15:Driving.c     **** #include "param.h"
  16:Driving.c     **** 
  17:Driving.c     **** // Function to set all servos to motor mode
  18:Driving.c     **** void servos_motormode(){
  28              		.loc 1 18 0
  29              		.cfi_startproc
  30              		@ args = 0, pretend = 0, frame = 0
  31              		@ frame_needed = 0, uses_anonymous_args = 0
  32 0000 08B5     		push	{r3, lr}
  33              		.cfi_def_cfa_offset 8
  34              		.cfi_offset 3, -8
  35              		.cfi_offset 14, -4
  19:Driving.c     ****     SetServoLimit(ID_MOTOR_LB, 0, 0);
  36              		.loc 1 19 0
  37 0002 0022     		movs	r2, #0
  38 0004 1146     		mov	r1, r2
ARM GAS  C:\Users\lab512\AppData\Local\Temp\cc9h7r2A.s 			page 2


  39 0006 0620     		movs	r0, #6
  40 0008 FFF7FEFF 		bl	SetServoLimit
  41              	.LVL0:
  20:Driving.c     ****     SetServoLimit(ID_MOTOR_LF, 0, 0);
  42              		.loc 1 20 0
  43 000c 0022     		movs	r2, #0
  44 000e 1146     		mov	r1, r2
  45 0010 0120     		movs	r0, #1
  46 0012 FFF7FEFF 		bl	SetServoLimit
  47              	.LVL1:
  21:Driving.c     ****     SetServoLimit(ID_MOTOR_RB, 0, 0);
  48              		.loc 1 21 0
  49 0016 0022     		movs	r2, #0
  50 0018 1146     		mov	r1, r2
  51 001a 0720     		movs	r0, #7
  52 001c FFF7FEFF 		bl	SetServoLimit
  53              	.LVL2:
  22:Driving.c     ****     SetServoLimit(ID_MOTOR_RF, 0, 0);
  54              		.loc 1 22 0
  55 0020 0022     		movs	r2, #0
  56 0022 1146     		mov	r1, r2
  57 0024 0320     		movs	r0, #3
  58 0026 FFF7FEFF 		bl	SetServoLimit
  59              	.LVL3:
  60 002a 08BD     		pop	{r3, pc}
  61              		.cfi_endproc
  62              	.LFE63:
  63              		.size	servos_motormode, .-servos_motormode
  64              		.global	__aeabi_i2d
  65              		.global	__aeabi_dmul
  66              		.global	__aeabi_d2iz
  67              		.section	.text.go_forward,"ax",%progbits
  68              		.align	2
  69              		.global	go_forward
  70              		.thumb
  71              		.thumb_func
  72              		.type	go_forward, %function
  73              	go_forward:
  74              	.LFB64:
  23:Driving.c     **** }
  24:Driving.c     **** 
  25:Driving.c     **** // Function to make the robot go forward with a given velocity
  26:Driving.c     **** void go_forward(signed short int velocity){
  75              		.loc 1 26 0
  76              		.cfi_startproc
  77              		@ args = 0, pretend = 0, frame = 0
  78              		@ frame_needed = 0, uses_anonymous_args = 0
  79              	.LVL4:
  80 0000 10B5     		push	{r4, lr}
  81              		.cfi_def_cfa_offset 8
  82              		.cfi_offset 4, -8
  83              		.cfi_offset 14, -4
  84 0002 0446     		mov	r4, r0
  27:Driving.c     ****     SetServoVelocity(ID_MOTOR_LB, V_LB(velocity));
  85              		.loc 1 27 0
  86 0004 0146     		mov	r1, r0
  87 0006 0620     		movs	r0, #6
ARM GAS  C:\Users\lab512\AppData\Local\Temp\cc9h7r2A.s 			page 3


  88              	.LVL5:
  89 0008 FFF7FEFF 		bl	SetServoVelocity
  90              	.LVL6:
  28:Driving.c     ****     SetServoVelocity(ID_MOTOR_LF, V_LF(velocity));
  91              		.loc 1 28 0
  92 000c 2146     		mov	r1, r4
  93 000e 0120     		movs	r0, #1
  94 0010 FFF7FEFF 		bl	SetServoVelocity
  95              	.LVL7:
  29:Driving.c     ****     SetServoVelocity(ID_MOTOR_RB, V_RB(velocity));
  96              		.loc 1 29 0
  97 0014 6042     		negs	r0, r4
  98 0016 FFF7FEFF 		bl	__aeabi_i2d
  99              	.LVL8:
 100 001a 09A3     		adr	r3, .L5
 101 001c D3E90023 		ldrd	r2, [r3]
 102 0020 FFF7FEFF 		bl	__aeabi_dmul
 103              	.LVL9:
 104 0024 FFF7FEFF 		bl	__aeabi_d2iz
 105              	.LVL10:
 106 0028 04B2     		sxth	r4, r0
 107 002a 2146     		mov	r1, r4
 108 002c 0720     		movs	r0, #7
 109 002e FFF7FEFF 		bl	SetServoVelocity
 110              	.LVL11:
  30:Driving.c     ****     SetServoVelocity(ID_MOTOR_RF, V_RF(velocity));
 111              		.loc 1 30 0
 112 0032 2146     		mov	r1, r4
 113 0034 0320     		movs	r0, #3
 114 0036 FFF7FEFF 		bl	SetServoVelocity
 115              	.LVL12:
 116 003a 10BD     		pop	{r4, pc}
 117              	.L6:
 118 003c AFF30080 		.align	3
 119              	.L5:
 120 0040 48E17A14 		.word	343597384
 121 0044 AE47F13F 		.word	1072777134
 122              		.cfi_endproc
 123              	.LFE64:
 124              		.size	go_forward, .-go_forward
 125              		.section	.text.stop,"ax",%progbits
 126              		.align	2
 127              		.global	stop
 128              		.thumb
 129              		.thumb_func
 130              		.type	stop, %function
 131              	stop:
 132              	.LFB65:
  31:Driving.c     **** }
  32:Driving.c     **** 
  33:Driving.c     **** // Function to stop the robot
  34:Driving.c     **** void stop(){
 133              		.loc 1 34 0
 134              		.cfi_startproc
 135              		@ args = 0, pretend = 0, frame = 0
 136              		@ frame_needed = 0, uses_anonymous_args = 0
 137 0000 08B5     		push	{r3, lr}
ARM GAS  C:\Users\lab512\AppData\Local\Temp\cc9h7r2A.s 			page 4


 138              		.cfi_def_cfa_offset 8
 139              		.cfi_offset 3, -8
 140              		.cfi_offset 14, -4
  35:Driving.c     ****     go_forward(0);
 141              		.loc 1 35 0
 142 0002 0020     		movs	r0, #0
 143 0004 FFF7FEFF 		bl	go_forward
 144              	.LVL13:
 145 0008 08BD     		pop	{r3, pc}
 146              		.cfi_endproc
 147              	.LFE65:
 148              		.size	stop, .-stop
 149              		.global	__aeabi_i2f
 150              		.global	__aeabi_fmul
 151              		.global	__aeabi_f2iz
 152 000a 00BF     		.section	.text.turn_left_precise,"ax",%progbits
 153              		.align	2
 154              		.global	turn_left_precise
 155              		.thumb
 156              		.thumb_func
 157              		.type	turn_left_precise, %function
 158              	turn_left_precise:
 159              	.LFB68:
  36:Driving.c     **** }
  37:Driving.c     **** 
  38:Driving.c     **** // Function to make the robot turn left with a given velocity
  39:Driving.c     **** void turn_left(signed short int velocity){
  40:Driving.c     ****     turn_left_precise(velocity, -1);
  41:Driving.c     **** }
  42:Driving.c     **** 
  43:Driving.c     **** // Function to make the robot turn right with a given velocity
  44:Driving.c     **** void turn_right(signed short int velocity){
  45:Driving.c     ****     turn_right_precise(velocity, -1);
  46:Driving.c     **** }
  47:Driving.c     **** 
  48:Driving.c     **** // Function to make the robot turn left with a given velocity and precision
  49:Driving.c     **** void turn_left_precise(signed short int velocity, float alpha){
 160              		.loc 1 49 0
 161              		.cfi_startproc
 162              		@ args = 0, pretend = 0, frame = 0
 163              		@ frame_needed = 0, uses_anonymous_args = 0
 164              	.LVL14:
 165 0000 38B5     		push	{r3, r4, r5, lr}
 166              		.cfi_def_cfa_offset 16
 167              		.cfi_offset 3, -16
 168              		.cfi_offset 4, -12
 169              		.cfi_offset 5, -8
 170              		.cfi_offset 14, -4
 171 0002 0546     		mov	r5, r0
 172 0004 0C46     		mov	r4, r1
  50:Driving.c     ****     SetServoVelocity(ID_MOTOR_LB, alpha * V_LB(velocity));
 173              		.loc 1 50 0
 174 0006 FFF7FEFF 		bl	__aeabi_i2f
 175              	.LVL15:
 176 000a 2146     		mov	r1, r4
 177 000c FFF7FEFF 		bl	__aeabi_fmul
 178              	.LVL16:
ARM GAS  C:\Users\lab512\AppData\Local\Temp\cc9h7r2A.s 			page 5


 179 0010 FFF7FEFF 		bl	__aeabi_f2iz
 180              	.LVL17:
 181 0014 04B2     		sxth	r4, r0
 182              	.LVL18:
 183 0016 2146     		mov	r1, r4
 184 0018 0620     		movs	r0, #6
 185 001a FFF7FEFF 		bl	SetServoVelocity
 186              	.LVL19:
  51:Driving.c     ****     SetServoVelocity(ID_MOTOR_LF, alpha * V_LF(velocity));
 187              		.loc 1 51 0
 188 001e 2146     		mov	r1, r4
 189 0020 0120     		movs	r0, #1
 190 0022 FFF7FEFF 		bl	SetServoVelocity
 191              	.LVL20:
  52:Driving.c     ****     SetServoVelocity(ID_MOTOR_RB, V_RB(velocity));
 192              		.loc 1 52 0
 193 0026 6842     		negs	r0, r5
 194 0028 FFF7FEFF 		bl	__aeabi_i2d
 195              	.LVL21:
 196 002c 08A3     		adr	r3, .L11
 197 002e D3E90023 		ldrd	r2, [r3]
 198 0032 FFF7FEFF 		bl	__aeabi_dmul
 199              	.LVL22:
 200 0036 FFF7FEFF 		bl	__aeabi_d2iz
 201              	.LVL23:
 202 003a 04B2     		sxth	r4, r0
 203 003c 2146     		mov	r1, r4
 204 003e 0720     		movs	r0, #7
 205 0040 FFF7FEFF 		bl	SetServoVelocity
 206              	.LVL24:
  53:Driving.c     ****     SetServoVelocity(ID_MOTOR_RF, V_RF(velocity));
 207              		.loc 1 53 0
 208 0044 2146     		mov	r1, r4
 209 0046 0320     		movs	r0, #3
 210 0048 FFF7FEFF 		bl	SetServoVelocity
 211              	.LVL25:
 212 004c 38BD     		pop	{r3, r4, r5, pc}
 213              	.L12:
 214 004e 00BF     		.align	3
 215              	.L11:
 216 0050 48E17A14 		.word	343597384
 217 0054 AE47F13F 		.word	1072777134
 218              		.cfi_endproc
 219              	.LFE68:
 220              		.size	turn_left_precise, .-turn_left_precise
 221              		.section	.text.turn_left,"ax",%progbits
 222              		.align	2
 223              		.global	turn_left
 224              		.thumb
 225              		.thumb_func
 226              		.type	turn_left, %function
 227              	turn_left:
 228              	.LFB66:
  39:Driving.c     ****     turn_left_precise(velocity, -1);
 229              		.loc 1 39 0
 230              		.cfi_startproc
 231              		@ args = 0, pretend = 0, frame = 0
ARM GAS  C:\Users\lab512\AppData\Local\Temp\cc9h7r2A.s 			page 6


 232              		@ frame_needed = 0, uses_anonymous_args = 0
 233              	.LVL26:
 234 0000 08B5     		push	{r3, lr}
 235              		.cfi_def_cfa_offset 8
 236              		.cfi_offset 3, -8
 237              		.cfi_offset 14, -4
  40:Driving.c     **** }
 238              		.loc 1 40 0
 239 0002 0249     		ldr	r1, .L15
 240 0004 FFF7FEFF 		bl	turn_left_precise
 241              	.LVL27:
 242 0008 08BD     		pop	{r3, pc}
 243              	.L16:
 244 000a 00BF     		.align	2
 245              	.L15:
 246 000c 000080BF 		.word	-1082130432
 247              		.cfi_endproc
 248              	.LFE66:
 249              		.size	turn_left, .-turn_left
 250              		.global	__aeabi_f2d
 251              		.section	.text.turn_right_precise,"ax",%progbits
 252              		.align	2
 253              		.global	turn_right_precise
 254              		.thumb
 255              		.thumb_func
 256              		.type	turn_right_precise, %function
 257              	turn_right_precise:
 258              	.LFB69:
  54:Driving.c     **** }
  55:Driving.c     **** 
  56:Driving.c     **** // Function to make the robot turn right with a given velocity and precision
  57:Driving.c     **** void turn_right_precise(signed short int velocity, float alpha){
 259              		.loc 1 57 0
 260              		.cfi_startproc
 261              		@ args = 0, pretend = 0, frame = 0
 262              		@ frame_needed = 0, uses_anonymous_args = 0
 263              	.LVL28:
 264 0000 70B5     		push	{r4, r5, r6, lr}
 265              		.cfi_def_cfa_offset 16
 266              		.cfi_offset 4, -16
 267              		.cfi_offset 5, -12
 268              		.cfi_offset 6, -8
 269              		.cfi_offset 14, -4
 270 0002 0446     		mov	r4, r0
 271 0004 0E46     		mov	r6, r1
  58:Driving.c     ****     SetServoVelocity(ID_MOTOR_LB, V_LB(velocity));
 272              		.loc 1 58 0
 273 0006 0146     		mov	r1, r0
 274              	.LVL29:
 275 0008 0620     		movs	r0, #6
 276              	.LVL30:
 277 000a FFF7FEFF 		bl	SetServoVelocity
 278              	.LVL31:
  59:Driving.c     ****     SetServoVelocity(ID_MOTOR_LF, V_LF(velocity));
 279              		.loc 1 59 0
 280 000e 2146     		mov	r1, r4
 281 0010 0120     		movs	r0, #1
ARM GAS  C:\Users\lab512\AppData\Local\Temp\cc9h7r2A.s 			page 7


 282 0012 FFF7FEFF 		bl	SetServoVelocity
 283              	.LVL32:
  60:Driving.c     ****     SetServoVelocity(ID_MOTOR_RB, alpha * V_RB(velocity));
 284              		.loc 1 60 0
 285 0016 6042     		negs	r0, r4
 286 0018 FFF7FEFF 		bl	__aeabi_i2d
 287              	.LVL33:
 288 001c 0CA3     		adr	r3, .L19
 289 001e D3E90023 		ldrd	r2, [r3]
 290 0022 FFF7FEFF 		bl	__aeabi_dmul
 291              	.LVL34:
 292 0026 0446     		mov	r4, r0
 293 0028 0D46     		mov	r5, r1
 294 002a 3046     		mov	r0, r6
 295 002c FFF7FEFF 		bl	__aeabi_f2d
 296              	.LVL35:
 297 0030 2246     		mov	r2, r4
 298 0032 2B46     		mov	r3, r5
 299 0034 FFF7FEFF 		bl	__aeabi_dmul
 300              	.LVL36:
 301 0038 FFF7FEFF 		bl	__aeabi_d2iz
 302              	.LVL37:
 303 003c 04B2     		sxth	r4, r0
 304 003e 2146     		mov	r1, r4
 305 0040 0720     		movs	r0, #7
 306 0042 FFF7FEFF 		bl	SetServoVelocity
 307              	.LVL38:
  61:Driving.c     ****     SetServoVelocity(ID_MOTOR_RF, alpha * V_RF(velocity));
 308              		.loc 1 61 0
 309 0046 2146     		mov	r1, r4
 310 0048 0320     		movs	r0, #3
 311 004a FFF7FEFF 		bl	SetServoVelocity
 312              	.LVL39:
 313 004e 70BD     		pop	{r4, r5, r6, pc}
 314              	.LVL40:
 315              	.L20:
 316              		.align	3
 317              	.L19:
 318 0050 48E17A14 		.word	343597384
 319 0054 AE47F13F 		.word	1072777134
 320              		.cfi_endproc
 321              	.LFE69:
 322              		.size	turn_right_precise, .-turn_right_precise
 323              		.section	.text.turn_right,"ax",%progbits
 324              		.align	2
 325              		.global	turn_right
 326              		.thumb
 327              		.thumb_func
 328              		.type	turn_right, %function
 329              	turn_right:
 330              	.LFB67:
  44:Driving.c     ****     turn_right_precise(velocity, -1);
 331              		.loc 1 44 0
 332              		.cfi_startproc
 333              		@ args = 0, pretend = 0, frame = 0
 334              		@ frame_needed = 0, uses_anonymous_args = 0
 335              	.LVL41:
ARM GAS  C:\Users\lab512\AppData\Local\Temp\cc9h7r2A.s 			page 8


 336 0000 08B5     		push	{r3, lr}
 337              		.cfi_def_cfa_offset 8
 338              		.cfi_offset 3, -8
 339              		.cfi_offset 14, -4
  45:Driving.c     **** }
 340              		.loc 1 45 0
 341 0002 0249     		ldr	r1, .L23
 342 0004 FFF7FEFF 		bl	turn_right_precise
 343              	.LVL42:
 344 0008 08BD     		pop	{r3, pc}
 345              	.L24:
 346 000a 00BF     		.align	2
 347              	.L23:
 348 000c 000080BF 		.word	-1082130432
 349              		.cfi_endproc
 350              	.LFE67:
 351              		.size	turn_right, .-turn_right
 352              		.section	.text.reverse_turn_left,"ax",%progbits
 353              		.align	2
 354              		.global	reverse_turn_left
 355              		.thumb
 356              		.thumb_func
 357              		.type	reverse_turn_left, %function
 358              	reverse_turn_left:
 359              	.LFB70:
  62:Driving.c     **** }
  63:Driving.c     **** 
  64:Driving.c     **** void reverse_turn_left(signed short int velocity){
 360              		.loc 1 64 0
 361              		.cfi_startproc
 362              		@ args = 0, pretend = 0, frame = 0
 363              		@ frame_needed = 0, uses_anonymous_args = 0
 364              	.LVL43:
 365 0000 08B5     		push	{r3, lr}
 366              		.cfi_def_cfa_offset 8
 367              		.cfi_offset 3, -8
 368              		.cfi_offset 14, -4
  65:Driving.c     ****     turn_left_precise(-velocity, 0);
 369              		.loc 1 65 0
 370 0002 4042     		negs	r0, r0
 371              	.LVL44:
 372 0004 0021     		movs	r1, #0
 373 0006 00B2     		sxth	r0, r0
 374 0008 FFF7FEFF 		bl	turn_left_precise
 375              	.LVL45:
 376 000c 08BD     		pop	{r3, pc}
 377              		.cfi_endproc
 378              	.LFE70:
 379              		.size	reverse_turn_left, .-reverse_turn_left
 380 000e 00BF     		.section	.text.reverse_turn_right,"ax",%progbits
 381              		.align	2
 382              		.global	reverse_turn_right
 383              		.thumb
 384              		.thumb_func
 385              		.type	reverse_turn_right, %function
 386              	reverse_turn_right:
 387              	.LFB71:
ARM GAS  C:\Users\lab512\AppData\Local\Temp\cc9h7r2A.s 			page 9


  66:Driving.c     **** }
  67:Driving.c     **** 
  68:Driving.c     **** // Function to make the robot turn right with a given velocity
  69:Driving.c     **** void reverse_turn_right(signed short int velocity){
 388              		.loc 1 69 0
 389              		.cfi_startproc
 390              		@ args = 0, pretend = 0, frame = 0
 391              		@ frame_needed = 0, uses_anonymous_args = 0
 392              	.LVL46:
 393 0000 08B5     		push	{r3, lr}
 394              		.cfi_def_cfa_offset 8
 395              		.cfi_offset 3, -8
 396              		.cfi_offset 14, -4
  70:Driving.c     ****     turn_right_precise(-velocity, 0);
 397              		.loc 1 70 0
 398 0002 4042     		negs	r0, r0
 399              	.LVL47:
 400 0004 0021     		movs	r1, #0
 401 0006 00B2     		sxth	r0, r0
 402 0008 FFF7FEFF 		bl	turn_right_precise
 403              	.LVL48:
 404 000c 08BD     		pop	{r3, pc}
 405              		.cfi_endproc
 406              	.LFE71:
 407              		.size	reverse_turn_right, .-reverse_turn_right
 408 000e 00BF     		.text
 409              	.Letext0:
 410              		.file 2 "d:\\psoccreator4.2\\psoc creator\\4.2\\psoc creator\\import\\gnu\\arm\\5.4.1\\arm-none-ea
 411              		.file 3 "d:\\psoccreator4.2\\psoc creator\\4.2\\psoc creator\\import\\gnu\\arm\\5.4.1\\arm-none-ea
 412              		.file 4 "defs.h"
 413              		.file 5 "Generated_Source\\PSoC5/core_cm3.h"