ARM GAS  C:\Users\lab512\AppData\Local\Temp\ccPrcYEj.s 			page 1


   1              		.syntax unified
   2              		.cpu cortex-m3
   3              		.fpu softvfp
   4              		.eabi_attribute 20, 1
   5              		.eabi_attribute 21, 1
   6              		.eabi_attribute 23, 3
   7              		.eabi_attribute 24, 1
   8              		.eabi_attribute 25, 1
   9              		.eabi_attribute 26, 1
  10              		.eabi_attribute 30, 1
  11              		.eabi_attribute 34, 1
  12              		.eabi_attribute 18, 4
  13              		.thumb
  14              		.syntax unified
  15              		.file	"main.c"
  16              		.text
  17              	.Ltext0:
  18              		.cfi_sections	.debug_frame
  19              		.section	.text.main,"ax",%progbits
  20              		.align	2
  21              		.global	main
  22              		.thumb
  23              		.thumb_func
  24              		.type	main, %function
  25              	main:
  26              	.LFB63:
  27              		.file 1 "main.c"
   1:main.c        **** /* ========================================
   2:main.c        ****  *
   3:main.c        ****  * Copyright YOUR COMPANY, THE YEAR
   4:main.c        ****  * All Rights Reserved
   5:main.c        ****  * UNPUBLISHED, LICENSED SOFTWARE.
   6:main.c        ****  *
   7:main.c        ****  * CONFIDENTIAL AND PROPRIETARY INFORMATION
   8:main.c        ****  * WHICH IS THE PROPERTY OF your company.
   9:main.c        ****  *
  10:main.c        ****  * ========================================
  11:main.c        ****  */
  12:main.c        **** #include <project.h>
  13:main.c        **** #include "defs.h"
  14:main.c        **** #include "param.h"
  15:main.c        **** 
  16:main.c        **** int main()
  17:main.c        **** {
  28              		.loc 1 17 0
  29              		.cfi_startproc
  30              		@ args = 0, pretend = 0, frame = 0
  31              		@ frame_needed = 0, uses_anonymous_args = 0
  32 0000 70B5     		push	{r4, r5, r6, lr}
  33              		.cfi_def_cfa_offset 16
  34              		.cfi_offset 4, -16
  35              		.cfi_offset 5, -12
  36              		.cfi_offset 6, -8
  37              		.cfi_offset 14, -4
  18:main.c        ****     CyGlobalIntEnable; /* Enable global interrupts. */
  38              		.loc 1 18 0
  39              		.syntax unified
ARM GAS  C:\Users\lab512\AppData\Local\Temp\ccPrcYEj.s 			page 2


  40              	@ 18 "main.c" 1
  41 0002 62B6     		CPSIE   i
  42              	@ 0 "" 2
  19:main.c        **** 
  20:main.c        ****     /* Place your initialization/startup code here (e.g., MyInst_Start()) */
  21:main.c        ****     // Initialize UARTs
  22:main.c        ****     UART_Start();
  43              		.loc 1 22 0
  44              		.thumb
  45              		.syntax unified
  46 0004 FFF7FEFF 		bl	UART_Start
  47              	.LVL0:
  23:main.c        ****     UART_1_Start();
  48              		.loc 1 23 0
  49 0008 FFF7FEFF 		bl	UART_1_Start
  50              	.LVL1:
  24:main.c        ****     UART_2_Start();
  51              		.loc 1 24 0
  52 000c FFF7FEFF 		bl	UART_2_Start
  53              	.LVL2:
  25:main.c        **** 
  26:main.c        ****     // Initialize servos
  27:main.c        ****     servos_motormode();
  54              		.loc 1 27 0
  55 0010 FFF7FEFF 		bl	servos_motormode
  56              	.LVL3:
  28:main.c        ****     stop();
  57              		.loc 1 28 0
  58 0014 FFF7FEFF 		bl	stop
  59              	.LVL4:
  29:main.c        **** 
  30:main.c        ****     // Initialize ranging probes
  31:main.c        ****     ranging_init();
  60              		.loc 1 31 0
  61 0018 FFF7FEFF 		bl	ranging_init
  62              	.LVL5:
  32:main.c        **** 
  33:main.c        ****     // Initialize LCD
  34:main.c        ****     LCD_Start();
  63              		.loc 1 34 0
  64 001c FFF7FEFF 		bl	LCD_Start
  65              	.LVL6:
  35:main.c        ****     
  36:main.c        ****     // Local variables
  37:main.c        ****     char operation_char;    // Operation received from Zigbee
  38:main.c        ****     int d1, d2;             // Distance from ranging probes
  39:main.c        **** 
  40:main.c        ****     // initialize antman mode(currently unuseful)
  41:main.c        ****     antman_init();
  66              		.loc 1 41 0
  67 0020 FFF7FEFF 		bl	antman_init
  68              	.LVL7:
  69              	.L27:
  42:main.c        **** 
  43:main.c        ****     for (;;)
  44:main.c        ****     {
  45:main.c        ****         
ARM GAS  C:\Users\lab512\AppData\Local\Temp\ccPrcYEj.s 			page 3


  46:main.c        ****         /* Place your application code here. */
  47:main.c        ****         d1 = get_millimeter1();
  70              		.loc 1 47 0
  71 0024 FFF7FEFF 		bl	get_millimeter1
  72              	.LVL8:
  73 0028 0646     		mov	r6, r0
  74              	.LVL9:
  48:main.c        ****         d2 = get_millimeter2();
  75              		.loc 1 48 0
  76 002a FFF7FEFF 		bl	get_millimeter2
  77              	.LVL10:
  78 002e 0546     		mov	r5, r0
  79              	.LVL11:
  49:main.c        **** 
  50:main.c        ****         LCD_Position(0, 0);
  80              		.loc 1 50 0
  81 0030 0021     		movs	r1, #0
  82 0032 0846     		mov	r0, r1
  83              	.LVL12:
  84 0034 FFF7FEFF 		bl	LCD_Position
  85              	.LVL13:
  51:main.c        ****         LCD_PrintString(LCD_CLEAR);
  86              		.loc 1 51 0
  87 0038 574C     		ldr	r4, .L29
  88 003a 2046     		mov	r0, r4
  89 003c FFF7FEFF 		bl	LCD_PrintString
  90              	.LVL14:
  52:main.c        ****         LCD_Position(1, 0);
  91              		.loc 1 52 0
  92 0040 0021     		movs	r1, #0
  93 0042 0120     		movs	r0, #1
  94 0044 FFF7FEFF 		bl	LCD_Position
  95              	.LVL15:
  53:main.c        ****         LCD_PrintString(LCD_CLEAR);
  96              		.loc 1 53 0
  97 0048 2046     		mov	r0, r4
  98 004a FFF7FEFF 		bl	LCD_PrintString
  99              	.LVL16:
  54:main.c        ****         LCD_Position(0, 0);
 100              		.loc 1 54 0
 101 004e 0021     		movs	r1, #0
 102 0050 0846     		mov	r0, r1
 103 0052 FFF7FEFF 		bl	LCD_Position
 104              	.LVL17:
  55:main.c        ****         LCD_PrintInt32(d1);
 105              		.loc 1 55 0
 106 0056 3046     		mov	r0, r6
 107 0058 FFF7FEFF 		bl	LCD_PrintInt32
 108              	.LVL18:
  56:main.c        ****         LCD_Position(1, 0);
 109              		.loc 1 56 0
 110 005c 0021     		movs	r1, #0
 111 005e 0120     		movs	r0, #1
 112 0060 FFF7FEFF 		bl	LCD_Position
 113              	.LVL19:
  57:main.c        ****         LCD_PrintInt32(d2);
 114              		.loc 1 57 0
ARM GAS  C:\Users\lab512\AppData\Local\Temp\ccPrcYEj.s 			page 4


 115 0064 2846     		mov	r0, r5
 116 0066 FFF7FEFF 		bl	LCD_PrintInt32
 117              	.LVL20:
  58:main.c        **** 
  59:main.c        ****         // antman(d1, d2, SPEED);
  60:main.c        **** 
  61:main.c        ****         if(UART_2_GetRxBufferSize() > 0)
 118              		.loc 1 61 0
 119 006a FFF7FEFF 		bl	UART_2_GetRxBufferSize
 120              	.LVL21:
 121 006e 0028     		cmp	r0, #0
 122 0070 00F08A80 		beq	.L2
  62:main.c        **** 		{		
  63:main.c        ****             operation_char = UART_2_GetChar();
 123              		.loc 1 63 0
 124 0074 FFF7FEFF 		bl	UART_2_GetChar
 125              	.LVL22:
  64:main.c        ****             switch (operation_char)
 126              		.loc 1 64 0
 127 0078 2038     		subs	r0, r0, #32
 128              	.LVL23:
 129 007a 5A28     		cmp	r0, #90
 130 007c 7FD8     		bhi	.L3
 131 007e DFE800F0 		tbb	[pc, r0]
 132              	.L5:
 133 0082 7B       		.byte	(.L4-.L5)/2
 134 0083 7E       		.byte	(.L3-.L5)/2
 135 0084 7E       		.byte	(.L3-.L5)/2
 136 0085 7E       		.byte	(.L3-.L5)/2
 137 0086 7E       		.byte	(.L3-.L5)/2
 138 0087 7E       		.byte	(.L3-.L5)/2
 139 0088 7E       		.byte	(.L3-.L5)/2
 140 0089 7E       		.byte	(.L3-.L5)/2
 141 008a 7E       		.byte	(.L3-.L5)/2
 142 008b 7E       		.byte	(.L3-.L5)/2
 143 008c 7E       		.byte	(.L3-.L5)/2
 144 008d 78       		.byte	(.L6-.L5)/2
 145 008e 7E       		.byte	(.L3-.L5)/2
 146 008f 75       		.byte	(.L7-.L5)/2
 147 0090 7E       		.byte	(.L3-.L5)/2
 148 0091 7E       		.byte	(.L3-.L5)/2
 149 0092 72       		.byte	(.L8-.L5)/2
 150 0093 57       		.byte	(.L9-.L5)/2
 151 0094 5A       		.byte	(.L10-.L5)/2
 152 0095 5D       		.byte	(.L11-.L5)/2
 153 0096 60       		.byte	(.L12-.L5)/2
 154 0097 63       		.byte	(.L13-.L5)/2
 155 0098 66       		.byte	(.L14-.L5)/2
 156 0099 69       		.byte	(.L15-.L5)/2
 157 009a 6C       		.byte	(.L16-.L5)/2
 158 009b 6F       		.byte	(.L17-.L5)/2
 159 009c 7E       		.byte	(.L3-.L5)/2
 160 009d 7E       		.byte	(.L3-.L5)/2
 161 009e 7E       		.byte	(.L3-.L5)/2
 162 009f 7E       		.byte	(.L3-.L5)/2
 163 00a0 7E       		.byte	(.L3-.L5)/2
 164 00a1 7E       		.byte	(.L3-.L5)/2
ARM GAS  C:\Users\lab512\AppData\Local\Temp\ccPrcYEj.s 			page 5


 165 00a2 7E       		.byte	(.L3-.L5)/2
 166 00a3 7E       		.byte	(.L3-.L5)/2
 167 00a4 7E       		.byte	(.L3-.L5)/2
 168 00a5 7E       		.byte	(.L3-.L5)/2
 169 00a6 7E       		.byte	(.L3-.L5)/2
 170 00a7 7E       		.byte	(.L3-.L5)/2
 171 00a8 7E       		.byte	(.L3-.L5)/2
 172 00a9 7E       		.byte	(.L3-.L5)/2
 173 00aa 7E       		.byte	(.L3-.L5)/2
 174 00ab 7E       		.byte	(.L3-.L5)/2
 175 00ac 7E       		.byte	(.L3-.L5)/2
 176 00ad 7E       		.byte	(.L3-.L5)/2
 177 00ae 7E       		.byte	(.L3-.L5)/2
 178 00af 7E       		.byte	(.L3-.L5)/2
 179 00b0 7E       		.byte	(.L3-.L5)/2
 180 00b1 7E       		.byte	(.L3-.L5)/2
 181 00b2 7E       		.byte	(.L3-.L5)/2
 182 00b3 7E       		.byte	(.L3-.L5)/2
 183 00b4 7E       		.byte	(.L3-.L5)/2
 184 00b5 7E       		.byte	(.L3-.L5)/2
 185 00b6 7E       		.byte	(.L3-.L5)/2
 186 00b7 7E       		.byte	(.L3-.L5)/2
 187 00b8 7E       		.byte	(.L3-.L5)/2
 188 00b9 7E       		.byte	(.L3-.L5)/2
 189 00ba 7E       		.byte	(.L3-.L5)/2
 190 00bb 7E       		.byte	(.L3-.L5)/2
 191 00bc 7E       		.byte	(.L3-.L5)/2
 192 00bd 7E       		.byte	(.L3-.L5)/2
 193 00be 7E       		.byte	(.L3-.L5)/2
 194 00bf 7E       		.byte	(.L3-.L5)/2
 195 00c0 7E       		.byte	(.L3-.L5)/2
 196 00c1 7E       		.byte	(.L3-.L5)/2
 197 00c2 7E       		.byte	(.L3-.L5)/2
 198 00c3 33       		.byte	(.L18-.L5)/2
 199 00c4 7E       		.byte	(.L3-.L5)/2
 200 00c5 52       		.byte	(.L19-.L5)/2
 201 00c6 3C       		.byte	(.L20-.L5)/2
 202 00c7 47       		.byte	(.L21-.L5)/2
 203 00c8 7E       		.byte	(.L3-.L5)/2
 204 00c9 7E       		.byte	(.L3-.L5)/2
 205 00ca 7E       		.byte	(.L3-.L5)/2
 206 00cb 7E       		.byte	(.L3-.L5)/2
 207 00cc 7E       		.byte	(.L3-.L5)/2
 208 00cd 7E       		.byte	(.L3-.L5)/2
 209 00ce 7E       		.byte	(.L3-.L5)/2
 210 00cf 7E       		.byte	(.L3-.L5)/2
 211 00d0 7E       		.byte	(.L3-.L5)/2
 212 00d1 7E       		.byte	(.L3-.L5)/2
 213 00d2 7E       		.byte	(.L3-.L5)/2
 214 00d3 41       		.byte	(.L22-.L5)/2
 215 00d4 7E       		.byte	(.L3-.L5)/2
 216 00d5 38       		.byte	(.L23-.L5)/2
 217 00d6 7E       		.byte	(.L3-.L5)/2
 218 00d7 7E       		.byte	(.L3-.L5)/2
 219 00d8 7E       		.byte	(.L3-.L5)/2
 220 00d9 2E       		.byte	(.L24-.L5)/2
 221 00da 7E       		.byte	(.L3-.L5)/2
ARM GAS  C:\Users\lab512\AppData\Local\Temp\ccPrcYEj.s 			page 6


 222 00db 7E       		.byte	(.L3-.L5)/2
 223 00dc 4D       		.byte	(.L25-.L5)/2
 224 00dd 00       		.p2align 1
 225              	.L24:
  65:main.c        ****             {
  66:main.c        ****             case 'w':go_forward(SPEED); break;
 226              		.loc 1 66 0
 227 00de 4FF47A70 		mov	r0, #1000
 228 00e2 FFF7FEFF 		bl	go_forward
 229              	.LVL24:
 230 00e6 53E0     		b	.L26
 231              	.L18:
  67:main.c        ****             case 'a':turn_left(SPEED); break;
 232              		.loc 1 67 0
 233 00e8 4FF47A70 		mov	r0, #1000
 234 00ec FFF7FEFF 		bl	turn_left
 235              	.LVL25:
 236 00f0 4EE0     		b	.L26
 237              	.L23:
  68:main.c        ****             case 's':go_forward(-SPEED); break;
 238              		.loc 1 68 0
 239 00f2 2A48     		ldr	r0, .L29+4
 240 00f4 FFF7FEFF 		bl	go_forward
 241              	.LVL26:
 242 00f8 4AE0     		b	.L26
 243              	.L20:
  69:main.c        ****             case 'd':turn_right(SPEED); break;
 244              		.loc 1 69 0
 245 00fa 4FF47A70 		mov	r0, #1000
 246 00fe FFF7FEFF 		bl	turn_right
 247              	.LVL27:
 248 0102 45E0     		b	.L26
 249              	.L22:
  70:main.c        ****             case 'q':turn_left_precise(SPEED, 0); break;
 250              		.loc 1 70 0
 251 0104 0021     		movs	r1, #0
 252 0106 4FF47A70 		mov	r0, #1000
 253 010a FFF7FEFF 		bl	turn_left_precise
 254              	.LVL28:
 255 010e 3FE0     		b	.L26
 256              	.L21:
  71:main.c        ****             case 'e':turn_right_precise(SPEED, 0); break;
 257              		.loc 1 71 0
 258 0110 0021     		movs	r1, #0
 259 0112 4FF47A70 		mov	r0, #1000
 260 0116 FFF7FEFF 		bl	turn_right_precise
 261              	.LVL29:
 262 011a 39E0     		b	.L26
 263              	.L25:
  72:main.c        ****             case 'z':reverse_turn_left(SPEED); break;
 264              		.loc 1 72 0
 265 011c 4FF47A70 		mov	r0, #1000
 266 0120 FFF7FEFF 		bl	reverse_turn_left
 267              	.LVL30:
 268 0124 34E0     		b	.L26
 269              	.L19:
  73:main.c        ****             case 'c':reverse_turn_right(SPEED); break;
ARM GAS  C:\Users\lab512\AppData\Local\Temp\ccPrcYEj.s 			page 7


 270              		.loc 1 73 0
 271 0126 4FF47A70 		mov	r0, #1000
 272 012a FFF7FEFF 		bl	reverse_turn_right
 273              	.LVL31:
 274 012e 2FE0     		b	.L26
 275              	.L9:
  74:main.c        ****             case '1':m1_left_unit(); break;
 276              		.loc 1 74 0
 277 0130 FFF7FEFF 		bl	m1_left_unit
 278              	.LVL32:
 279 0134 2CE0     		b	.L26
 280              	.L10:
  75:main.c        ****             case '2':m1_right_unit(); break;
 281              		.loc 1 75 0
 282 0136 FFF7FEFF 		bl	m1_right_unit
 283              	.LVL33:
 284 013a 29E0     		b	.L26
 285              	.L11:
  76:main.c        ****             case '3':m2_forward_unit(); break;
 286              		.loc 1 76 0
 287 013c FFF7FEFF 		bl	m2_forward_unit
 288              	.LVL34:
 289 0140 26E0     		b	.L26
 290              	.L12:
  77:main.c        ****             case '4':m2_backward_unit(); break;
 291              		.loc 1 77 0
 292 0142 FFF7FEFF 		bl	m2_backward_unit
 293              	.LVL35:
 294 0146 23E0     		b	.L26
 295              	.L13:
  78:main.c        ****             case '5':m3_up_unit(); break;
 296              		.loc 1 78 0
 297 0148 FFF7FEFF 		bl	m3_up_unit
 298              	.LVL36:
 299 014c 20E0     		b	.L26
 300              	.L14:
  79:main.c        ****             case '6':m3_down_unit(); break;
 301              		.loc 1 79 0
 302 014e FFF7FEFF 		bl	m3_down_unit
 303              	.LVL37:
 304 0152 1DE0     		b	.L26
 305              	.L15:
  80:main.c        ****             case '7':m4_up_unit(); break;
 306              		.loc 1 80 0
 307 0154 FFF7FEFF 		bl	m4_up_unit
 308              	.LVL38:
 309 0158 1AE0     		b	.L26
 310              	.L16:
  81:main.c        ****             case '8':m4_up_unit(); break;
 311              		.loc 1 81 0
 312 015a FFF7FEFF 		bl	m4_up_unit
 313              	.LVL39:
 314 015e 17E0     		b	.L26
 315              	.L17:
  82:main.c        ****             case '9':grab(); break;
 316              		.loc 1 82 0
 317 0160 FFF7FEFF 		bl	grab
ARM GAS  C:\Users\lab512\AppData\Local\Temp\ccPrcYEj.s 			page 8


 318              	.LVL40:
 319 0164 14E0     		b	.L26
 320              	.L8:
  83:main.c        ****             case '0':drop(); break;
 321              		.loc 1 83 0
 322 0166 FFF7FEFF 		bl	drop
 323              	.LVL41:
 324 016a 11E0     		b	.L26
 325              	.L7:
  84:main.c        ****             case '-':reset_init_pos(); break;
 326              		.loc 1 84 0
 327 016c FFF7FEFF 		bl	reset_init_pos
 328              	.LVL42:
 329 0170 0EE0     		b	.L26
 330              	.L6:
  85:main.c        ****             case '+':pause(); break;
 331              		.loc 1 85 0
 332 0172 FFF7FEFF 		bl	pause
 333              	.LVL43:
 334 0176 0BE0     		b	.L26
 335              	.L4:
  86:main.c        ****             case ' ':stop(); break;
 336              		.loc 1 86 0
 337 0178 FFF7FEFF 		bl	stop
 338              	.LVL44:
 339 017c 08E0     		b	.L26
 340              	.L3:
  87:main.c        ****             
  88:main.c        ****             default: stop();pause();
 341              		.loc 1 88 0
 342 017e FFF7FEFF 		bl	stop
 343              	.LVL45:
 344 0182 FFF7FEFF 		bl	pause
 345              	.LVL46:
 346 0186 03E0     		b	.L26
 347              	.L2:
  89:main.c        ****             }       
  90:main.c        **** 		}
  91:main.c        ****         else{
  92:main.c        ****             stop();pause();
 348              		.loc 1 92 0
 349 0188 FFF7FEFF 		bl	stop
 350              	.LVL47:
 351 018c FFF7FEFF 		bl	pause
 352              	.LVL48:
 353              	.L26:
  93:main.c        ****         }
  94:main.c        ****         CyDelay(INTERVAL);
 354              		.loc 1 94 0
 355 0190 6420     		movs	r0, #100
 356 0192 FFF7FEFF 		bl	CyDelay
 357              	.LVL49:
  95:main.c        ****     }
 358              		.loc 1 95 0
 359 0196 45E7     		b	.L27
 360              	.L30:
 361              		.align	2
ARM GAS  C:\Users\lab512\AppData\Local\Temp\ccPrcYEj.s 			page 9


 362              	.L29:
 363 0198 00000000 		.word	.LC0
 364 019c 18FCFFFF 		.word	-1000
 365              		.cfi_endproc
 366              	.LFE63:
 367              		.size	main, .-main
 368              		.section	.rodata.str1.4,"aMS",%progbits,1
 369              		.align	2
 370              	.LC0:
 371 0000 20202020 		.ascii	"                \000"
 371      20202020 
 371      20202020 
 371      20202020 
 371      00
 372              		.text
 373              	.Letext0:
 374              		.file 2 "d:\\psoccreator4.2\\psoc creator\\4.2\\psoc creator\\import\\gnu\\arm\\5.4.1\\arm-none-ea
 375              		.file 3 "d:\\psoccreator4.2\\psoc creator\\4.2\\psoc creator\\import\\gnu\\arm\\5.4.1\\arm-none-ea
 376              		.file 4 "Generated_Source\\PSoC5/UART.h"
 377              		.file 5 "Generated_Source\\PSoC5/UART_1.h"
 378              		.file 6 "Generated_Source\\PSoC5/UART_2.h"
 379              		.file 7 "defs.h"
 380              		.file 8 "Generated_Source\\PSoC5/LCD.h"
 381              		.file 9 "Generated_Source\\PSoC5/CyLib.h"
 382              		.file 10 "Generated_Source\\PSoC5/core_cm3.h"