ARM GAS  C:\Users\lab512\AppData\Local\Temp\ccX9mncH.s 			page 1


   1              		.syntax unified
   2              		.cpu cortex-m3
   3              		.fpu softvfp
   4              		.eabi_attribute 20, 1
   5              		.eabi_attribute 21, 1
   6              		.eabi_attribute 23, 3
   7              		.eabi_attribute 24, 1
   8              		.eabi_attribute 25, 1
   9              		.eabi_attribute 26, 1
  10              		.eabi_attribute 30, 1
  11              		.eabi_attribute 34, 1
  12              		.eabi_attribute 18, 4
  13              		.thumb
  14              		.syntax unified
  15              		.file	"Ranging.c"
  16              		.text
  17              	.Ltext0:
  18              		.cfi_sections	.debug_frame
  19              		.section	.text.RangingTimeoutInt1,"ax",%progbits
  20              		.align	2
  21              		.global	RangingTimeoutInt1
  22              		.thumb
  23              		.thumb_func
  24              		.type	RangingTimeoutInt1, %function
  25              	RangingTimeoutInt1:
  26              	.LFB65:
  27              		.file 1 "Ranging.c"
   1:Ranging.c     **** /* ========================================
   2:Ranging.c     ****  *
   3:Ranging.c     ****  * Copyright YOUR COMPANY, THE YEAR
   4:Ranging.c     ****  * All Rights Reserved
   5:Ranging.c     ****  * UNPUBLISHED, LICENSED SOFTWARE.
   6:Ranging.c     ****  *
   7:Ranging.c     ****  * CONFIDENTIAL AND PROPRIETARY INFORMATION
   8:Ranging.c     ****  * WHICH IS THE PROPERTY OF your company.
   9:Ranging.c     ****  *
  10:Ranging.c     ****  * ========================================
  11:Ranging.c     **** */
  12:Ranging.c     **** 
  13:Ranging.c     **** #include "project.h"
  14:Ranging.c     **** #include "defs.h"
  15:Ranging.c     **** #include "param.h"
  16:Ranging.c     **** 
  17:Ranging.c     **** // ---------- Global Variables ----------
  18:Ranging.c     **** 
  19:Ranging.c     **** // Timer period and timeout flag
  20:Ranging.c     **** uint32 period1, period2;
  21:Ranging.c     **** int timeout1, timeout2;
  22:Ranging.c     **** 
  23:Ranging.c     **** // ---------- Common Functions --------
  24:Ranging.c     **** 
  25:Ranging.c     **** // Calculate the distance (millimeter) out of the count value
  26:Ranging.c     **** long long calculate_millimeter(uint32 cnt) {
  27:Ranging.c     ****     return ((long long)cnt) * SOUND_SPEED * 1000 / RANGING_CLOCK_FREQ / 2;
  28:Ranging.c     **** }
  29:Ranging.c     **** 
  30:Ranging.c     **** // Initialize all probes
ARM GAS  C:\Users\lab512\AppData\Local\Temp\ccX9mncH.s 			page 2


  31:Ranging.c     **** void ranging_init() {
  32:Ranging.c     ****     ranging_init1();
  33:Ranging.c     ****     ranging_init2();
  34:Ranging.c     **** }
  35:Ranging.c     **** 
  36:Ranging.c     **** // ---------- Probe 1 Functions ----------
  37:Ranging.c     **** 
  38:Ranging.c     **** // Timeout interrupt handler
  39:Ranging.c     **** CY_ISR(RangingTimeoutInt1) {
  28              		.loc 1 39 0
  29              		.cfi_startproc
  30              		@ args = 0, pretend = 0, frame = 0
  31              		@ frame_needed = 0, uses_anonymous_args = 0
  32 0000 08B5     		push	{r3, lr}
  33              		.cfi_def_cfa_offset 8
  34              		.cfi_offset 3, -8
  35              		.cfi_offset 14, -4
  40:Ranging.c     ****     Ranging_Timer1_STATUS; // Reset interrupt status
  36              		.loc 1 40 0
  37 0002 044B     		ldr	r3, .L3
  38 0004 1B78     		ldrb	r3, [r3]	@ zero_extendqisi2
  41:Ranging.c     ****     timeout1 = 1; // Set timeout flag
  39              		.loc 1 41 0
  40 0006 0122     		movs	r2, #1
  41 0008 034B     		ldr	r3, .L3+4
  42 000a 1A60     		str	r2, [r3]
  42:Ranging.c     ****     Ranging_Timer1_Stop(); // Stop timer
  43              		.loc 1 42 0
  44 000c FFF7FEFF 		bl	Ranging_Timer1_Stop
  45              	.LVL0:
  46 0010 08BD     		pop	{r3, pc}
  47              	.L4:
  48 0012 00BF     		.align	2
  49              	.L3:
  50 0014 6D640040 		.word	1073767533
  51 0018 00000000 		.word	timeout1
  52              		.cfi_endproc
  53              	.LFE65:
  54              		.size	RangingTimeoutInt1, .-RangingTimeoutInt1
  55              		.section	.text.RangingTimeoutInt2,"ax",%progbits
  56              		.align	2
  57              		.global	RangingTimeoutInt2
  58              		.thumb
  59              		.thumb_func
  60              		.type	RangingTimeoutInt2, %function
  61              	RangingTimeoutInt2:
  62              	.LFB71:
  43:Ranging.c     **** }
  44:Ranging.c     **** 
  45:Ranging.c     **** // Initialization
  46:Ranging.c     **** void ranging_init1() {
  47:Ranging.c     ****     period1 = Ranging_Timer1_ReadPeriod(); // Get period
  48:Ranging.c     ****     Ranging_Timer1_Clock_Start(); // Start timer clock
  49:Ranging.c     ****     Ranging_Timeout1_StartEx(RangingTimeoutInt1); // Enable interrupt
  50:Ranging.c     **** }
  51:Ranging.c     **** 
  52:Ranging.c     **** // Generate trigger pulse signal for probe 1
ARM GAS  C:\Users\lab512\AppData\Local\Temp\ccX9mncH.s 			page 3


  53:Ranging.c     **** void trigger1() {
  54:Ranging.c     ****     Ranging_T1_Write(1);
  55:Ranging.c     ****     CyDelayUs(RANGING_TRIGGER);
  56:Ranging.c     ****     Ranging_T1_Write(0);
  57:Ranging.c     **** }
  58:Ranging.c     **** 
  59:Ranging.c     **** // Set timer value and start timer for probe 1
  60:Ranging.c     **** void startcount1() {
  61:Ranging.c     ****     Ranging_Timer1_Start();
  62:Ranging.c     ****     Ranging_Timer1_WriteCounter(period1 - 1);
  63:Ranging.c     **** }
  64:Ranging.c     **** 
  65:Ranging.c     **** // Stop timer for probe 1 and get timer value, return count value
  66:Ranging.c     **** uint32 endcount1() {
  67:Ranging.c     ****     uint32 cnt = Ranging_Timer1_ReadCounter();
  68:Ranging.c     ****     Ranging_Timer1_Stop();
  69:Ranging.c     ****     return period1 - 1 - cnt;
  70:Ranging.c     **** }
  71:Ranging.c     **** 
  72:Ranging.c     **** // Get probe 1 distance (mm)
  73:Ranging.c     **** int get_millimeter1() {
  74:Ranging.c     ****     uint32 cnt;
  75:Ranging.c     ****     int distance;
  76:Ranging.c     ****     startcount1();
  77:Ranging.c     ****     trigger1();
  78:Ranging.c     ****     // Polling
  79:Ranging.c     ****     while (Ranging_R1_Read() == 0 && timeout1 == 0);
  80:Ranging.c     ****     startcount1();
  81:Ranging.c     ****     while (Ranging_R1_Read() != 0 && timeout1 == 0);
  82:Ranging.c     ****     cnt = endcount1();
  83:Ranging.c     ****     if (timeout1 == 0) {
  84:Ranging.c     ****         distance = (int)calculate_millimeter(cnt);
  85:Ranging.c     ****     } else {
  86:Ranging.c     ****         // If timeout, return int max
  87:Ranging.c     ****         distance = L_INT_MAX;
  88:Ranging.c     ****     }
  89:Ranging.c     ****     return distance;
  90:Ranging.c     **** }
  91:Ranging.c     **** 
  92:Ranging.c     **** // ---------- Probe 2 Functions ----------
  93:Ranging.c     **** 
  94:Ranging.c     **** // Timeout interrupt handler for probe 2
  95:Ranging.c     **** CY_ISR(RangingTimeoutInt2) {
  63              		.loc 1 95 0
  64              		.cfi_startproc
  65              		@ args = 0, pretend = 0, frame = 0
  66              		@ frame_needed = 0, uses_anonymous_args = 0
  67 0000 08B5     		push	{r3, lr}
  68              		.cfi_def_cfa_offset 8
  69              		.cfi_offset 3, -8
  70              		.cfi_offset 14, -4
  96:Ranging.c     ****     Ranging_Timer2_STATUS; // Reset interrupt status
  71              		.loc 1 96 0
  72 0002 044B     		ldr	r3, .L7
  73 0004 1B78     		ldrb	r3, [r3]	@ zero_extendqisi2
  97:Ranging.c     ****     timeout2 = 1; // Set timeout flag
  74              		.loc 1 97 0
ARM GAS  C:\Users\lab512\AppData\Local\Temp\ccX9mncH.s 			page 4


  75 0006 0122     		movs	r2, #1
  76 0008 034B     		ldr	r3, .L7+4
  77 000a 1A60     		str	r2, [r3]
  98:Ranging.c     ****     Ranging_Timer2_Stop(); // Stop timer
  78              		.loc 1 98 0
  79 000c FFF7FEFF 		bl	Ranging_Timer2_Stop
  80              	.LVL1:
  81 0010 08BD     		pop	{r3, pc}
  82              	.L8:
  83 0012 00BF     		.align	2
  84              	.L7:
  85 0014 6B650040 		.word	1073767787
  86 0018 00000000 		.word	timeout2
  87              		.cfi_endproc
  88              	.LFE71:
  89              		.size	RangingTimeoutInt2, .-RangingTimeoutInt2
  90              		.global	__aeabi_ldivmod
  91              		.section	.text.calculate_millimeter,"ax",%progbits
  92              		.align	2
  93              		.global	calculate_millimeter
  94              		.thumb
  95              		.thumb_func
  96              		.type	calculate_millimeter, %function
  97              	calculate_millimeter:
  98              	.LFB63:
  26:Ranging.c     ****     return ((long long)cnt) * SOUND_SPEED * 1000 / RANGING_CLOCK_FREQ / 2;
  99              		.loc 1 26 0
 100              		.cfi_startproc
 101              		@ args = 0, pretend = 0, frame = 0
 102              		@ frame_needed = 0, uses_anonymous_args = 0
 103              	.LVL2:
 104 0000 F8B5     		push	{r3, r4, r5, r6, r7, lr}
 105              		.cfi_def_cfa_offset 24
 106              		.cfi_offset 3, -24
 107              		.cfi_offset 4, -20
 108              		.cfi_offset 5, -16
 109              		.cfi_offset 6, -12
 110              		.cfi_offset 7, -8
 111              		.cfi_offset 14, -4
  27:Ranging.c     **** }
 112              		.loc 1 27 0
 113 0002 0446     		mov	r4, r0
 114 0004 0025     		movs	r5, #0
 115 0006 4601     		lsls	r6, r0, #5
 116 0008 C70E     		lsrs	r7, r0, #27
 117 000a BB00     		lsls	r3, r7, #2
 118 000c 43EA9673 		orr	r3, r3, r6, lsr #30
 119 0010 B200     		lsls	r2, r6, #2
 120 0012 9219     		adds	r2, r2, r6
 121 0014 7B41     		adcs	r3, r3, r7
 122 0016 1218     		adds	r2, r2, r0
 123 0018 6B41     		adcs	r3, r3, r5
 124 001a 9901     		lsls	r1, r3, #6
 125 001c 41EA9261 		orr	r1, r1, r2, lsr #26
 126 0020 9001     		lsls	r0, r2, #6
 127              	.LVL3:
 128 0022 021B     		subs	r2, r0, r4
ARM GAS  C:\Users\lab512\AppData\Local\Temp\ccX9mncH.s 			page 5


 129 0024 61EB0503 		sbc	r3, r1, r5
 130 0028 5901     		lsls	r1, r3, #5
 131 002a 41EAD261 		orr	r1, r1, r2, lsr #27
 132 002e 5001     		lsls	r0, r2, #5
 133 0030 8018     		adds	r0, r0, r2
 134 0032 5941     		adcs	r1, r1, r3
 135 0034 034A     		ldr	r2, .L11
 136 0036 0023     		movs	r3, #0
 137 0038 0019     		adds	r0, r0, r4
 138 003a 6941     		adcs	r1, r1, r5
 139 003c FFF7FEFF 		bl	__aeabi_ldivmod
 140              	.LVL4:
  28:Ranging.c     **** 
 141              		.loc 1 28 0
 142 0040 F8BD     		pop	{r3, r4, r5, r6, r7, pc}
 143              	.LVL5:
 144              	.L12:
 145 0042 00BF     		.align	2
 146              	.L11:
 147 0044 00366E01 		.word	24000000
 148              		.cfi_endproc
 149              	.LFE63:
 150              		.size	calculate_millimeter, .-calculate_millimeter
 151              		.section	.text.ranging_init1,"ax",%progbits
 152              		.align	2
 153              		.global	ranging_init1
 154              		.thumb
 155              		.thumb_func
 156              		.type	ranging_init1, %function
 157              	ranging_init1:
 158              	.LFB66:
  46:Ranging.c     ****     period1 = Ranging_Timer1_ReadPeriod(); // Get period
 159              		.loc 1 46 0
 160              		.cfi_startproc
 161              		@ args = 0, pretend = 0, frame = 0
 162              		@ frame_needed = 0, uses_anonymous_args = 0
 163 0000 08B5     		push	{r3, lr}
 164              		.cfi_def_cfa_offset 8
 165              		.cfi_offset 3, -8
 166              		.cfi_offset 14, -4
  47:Ranging.c     ****     Ranging_Timer1_Clock_Start(); // Start timer clock
 167              		.loc 1 47 0
 168 0002 FFF7FEFF 		bl	Ranging_Timer1_ReadPeriod
 169              	.LVL6:
 170 0006 044B     		ldr	r3, .L15
 171 0008 1860     		str	r0, [r3]
  48:Ranging.c     ****     Ranging_Timeout1_StartEx(RangingTimeoutInt1); // Enable interrupt
 172              		.loc 1 48 0
 173 000a FFF7FEFF 		bl	Ranging_Timer1_Clock_Start
 174              	.LVL7:
  49:Ranging.c     **** }
 175              		.loc 1 49 0
 176 000e 0348     		ldr	r0, .L15+4
 177 0010 FFF7FEFF 		bl	Ranging_Timeout1_StartEx
 178              	.LVL8:
 179 0014 08BD     		pop	{r3, pc}
 180              	.L16:
ARM GAS  C:\Users\lab512\AppData\Local\Temp\ccX9mncH.s 			page 6


 181 0016 00BF     		.align	2
 182              	.L15:
 183 0018 00000000 		.word	period1
 184 001c 00000000 		.word	RangingTimeoutInt1
 185              		.cfi_endproc
 186              	.LFE66:
 187              		.size	ranging_init1, .-ranging_init1
 188              		.section	.text.trigger1,"ax",%progbits
 189              		.align	2
 190              		.global	trigger1
 191              		.thumb
 192              		.thumb_func
 193              		.type	trigger1, %function
 194              	trigger1:
 195              	.LFB67:
  53:Ranging.c     ****     Ranging_T1_Write(1);
 196              		.loc 1 53 0
 197              		.cfi_startproc
 198              		@ args = 0, pretend = 0, frame = 0
 199              		@ frame_needed = 0, uses_anonymous_args = 0
 200 0000 08B5     		push	{r3, lr}
 201              		.cfi_def_cfa_offset 8
 202              		.cfi_offset 3, -8
 203              		.cfi_offset 14, -4
  54:Ranging.c     ****     CyDelayUs(RANGING_TRIGGER);
 204              		.loc 1 54 0
 205 0002 0120     		movs	r0, #1
 206 0004 FFF7FEFF 		bl	Ranging_T1_Write
 207              	.LVL9:
  55:Ranging.c     ****     Ranging_T1_Write(0);
 208              		.loc 1 55 0
 209 0008 3220     		movs	r0, #50
 210 000a FFF7FEFF 		bl	CyDelayUs
 211              	.LVL10:
  56:Ranging.c     **** }
 212              		.loc 1 56 0
 213 000e 0020     		movs	r0, #0
 214 0010 FFF7FEFF 		bl	Ranging_T1_Write
 215              	.LVL11:
 216 0014 08BD     		pop	{r3, pc}
 217              		.cfi_endproc
 218              	.LFE67:
 219              		.size	trigger1, .-trigger1
 220 0016 00BF     		.section	.text.startcount1,"ax",%progbits
 221              		.align	2
 222              		.global	startcount1
 223              		.thumb
 224              		.thumb_func
 225              		.type	startcount1, %function
 226              	startcount1:
 227              	.LFB68:
  60:Ranging.c     ****     Ranging_Timer1_Start();
 228              		.loc 1 60 0
 229              		.cfi_startproc
 230              		@ args = 0, pretend = 0, frame = 0
 231              		@ frame_needed = 0, uses_anonymous_args = 0
 232 0000 08B5     		push	{r3, lr}
ARM GAS  C:\Users\lab512\AppData\Local\Temp\ccX9mncH.s 			page 7


 233              		.cfi_def_cfa_offset 8
 234              		.cfi_offset 3, -8
 235              		.cfi_offset 14, -4
  61:Ranging.c     ****     Ranging_Timer1_WriteCounter(period1 - 1);
 236              		.loc 1 61 0
 237 0002 FFF7FEFF 		bl	Ranging_Timer1_Start
 238              	.LVL12:
  62:Ranging.c     **** }
 239              		.loc 1 62 0
 240 0006 034B     		ldr	r3, .L21
 241 0008 1868     		ldr	r0, [r3]
 242 000a 0138     		subs	r0, r0, #1
 243 000c FFF7FEFF 		bl	Ranging_Timer1_WriteCounter
 244              	.LVL13:
 245 0010 08BD     		pop	{r3, pc}
 246              	.L22:
 247 0012 00BF     		.align	2
 248              	.L21:
 249 0014 00000000 		.word	period1
 250              		.cfi_endproc
 251              	.LFE68:
 252              		.size	startcount1, .-startcount1
 253              		.section	.text.endcount1,"ax",%progbits
 254              		.align	2
 255              		.global	endcount1
 256              		.thumb
 257              		.thumb_func
 258              		.type	endcount1, %function
 259              	endcount1:
 260              	.LFB69:
  66:Ranging.c     ****     uint32 cnt = Ranging_Timer1_ReadCounter();
 261              		.loc 1 66 0
 262              		.cfi_startproc
 263              		@ args = 0, pretend = 0, frame = 0
 264              		@ frame_needed = 0, uses_anonymous_args = 0
 265 0000 10B5     		push	{r4, lr}
 266              		.cfi_def_cfa_offset 8
 267              		.cfi_offset 4, -8
 268              		.cfi_offset 14, -4
  67:Ranging.c     ****     Ranging_Timer1_Stop();
 269              		.loc 1 67 0
 270 0002 FFF7FEFF 		bl	Ranging_Timer1_ReadCounter
 271              	.LVL14:
 272 0006 0446     		mov	r4, r0
 273              	.LVL15:
  68:Ranging.c     ****     return period1 - 1 - cnt;
 274              		.loc 1 68 0
 275 0008 FFF7FEFF 		bl	Ranging_Timer1_Stop
 276              	.LVL16:
  69:Ranging.c     **** }
 277              		.loc 1 69 0
 278 000c 024B     		ldr	r3, .L25
 279 000e 1868     		ldr	r0, [r3]
 280 0010 001B     		subs	r0, r0, r4
  70:Ranging.c     **** 
 281              		.loc 1 70 0
 282 0012 0138     		subs	r0, r0, #1
ARM GAS  C:\Users\lab512\AppData\Local\Temp\ccX9mncH.s 			page 8


 283 0014 10BD     		pop	{r4, pc}
 284              	.LVL17:
 285              	.L26:
 286 0016 00BF     		.align	2
 287              	.L25:
 288 0018 00000000 		.word	period1
 289              		.cfi_endproc
 290              	.LFE69:
 291              		.size	endcount1, .-endcount1
 292              		.section	.text.get_millimeter1,"ax",%progbits
 293              		.align	2
 294              		.global	get_millimeter1
 295              		.thumb
 296              		.thumb_func
 297              		.type	get_millimeter1, %function
 298              	get_millimeter1:
 299              	.LFB70:
  73:Ranging.c     ****     uint32 cnt;
 300              		.loc 1 73 0
 301              		.cfi_startproc
 302              		@ args = 0, pretend = 0, frame = 0
 303              		@ frame_needed = 0, uses_anonymous_args = 0
 304 0000 08B5     		push	{r3, lr}
 305              		.cfi_def_cfa_offset 8
 306              		.cfi_offset 3, -8
 307              		.cfi_offset 14, -4
  76:Ranging.c     ****     trigger1();
 308              		.loc 1 76 0
 309 0002 FFF7FEFF 		bl	startcount1
 310              	.LVL18:
  77:Ranging.c     ****     // Polling
 311              		.loc 1 77 0
 312 0006 FFF7FEFF 		bl	trigger1
 313              	.LVL19:
 314              	.L29:
  79:Ranging.c     ****     startcount1();
 315              		.loc 1 79 0 discriminator 2
 316 000a FFF7FEFF 		bl	Ranging_R1_Read
 317              	.LVL20:
 318 000e 18B9     		cbnz	r0, .L28
  79:Ranging.c     ****     startcount1();
 319              		.loc 1 79 0 is_stmt 0 discriminator 1
 320 0010 0B4B     		ldr	r3, .L35
 321 0012 1B68     		ldr	r3, [r3]
 322 0014 002B     		cmp	r3, #0
 323 0016 F8D0     		beq	.L29
 324              	.L28:
  80:Ranging.c     ****     while (Ranging_R1_Read() != 0 && timeout1 == 0);
 325              		.loc 1 80 0 is_stmt 1
 326 0018 FFF7FEFF 		bl	startcount1
 327              	.LVL21:
 328              	.L31:
  81:Ranging.c     ****     cnt = endcount1();
 329              		.loc 1 81 0 discriminator 2
 330 001c FFF7FEFF 		bl	Ranging_R1_Read
 331              	.LVL22:
 332 0020 18B1     		cbz	r0, .L30
ARM GAS  C:\Users\lab512\AppData\Local\Temp\ccX9mncH.s 			page 9


  81:Ranging.c     ****     cnt = endcount1();
 333              		.loc 1 81 0 is_stmt 0 discriminator 1
 334 0022 074B     		ldr	r3, .L35
 335 0024 1B68     		ldr	r3, [r3]
 336 0026 002B     		cmp	r3, #0
 337 0028 F8D0     		beq	.L31
 338              	.L30:
  82:Ranging.c     ****     if (timeout1 == 0) {
 339              		.loc 1 82 0 is_stmt 1
 340 002a FFF7FEFF 		bl	endcount1
 341              	.LVL23:
  83:Ranging.c     ****         distance = (int)calculate_millimeter(cnt);
 342              		.loc 1 83 0
 343 002e 044B     		ldr	r3, .L35
 344 0030 1B68     		ldr	r3, [r3]
 345 0032 13B9     		cbnz	r3, .L33
  84:Ranging.c     ****     } else {
 346              		.loc 1 84 0
 347 0034 FFF7FEFF 		bl	calculate_millimeter
 348              	.LVL24:
 349 0038 08BD     		pop	{r3, pc}
 350              	.LVL25:
 351              	.L33:
  87:Ranging.c     ****     }
 352              		.loc 1 87 0
 353 003a 6FF00040 		mvn	r0, #-2147483648
 354              	.LVL26:
  90:Ranging.c     **** 
 355              		.loc 1 90 0
 356 003e 08BD     		pop	{r3, pc}
 357              	.L36:
 358              		.align	2
 359              	.L35:
 360 0040 00000000 		.word	timeout1
 361              		.cfi_endproc
 362              	.LFE70:
 363              		.size	get_millimeter1, .-get_millimeter1
 364              		.section	.text.ranging_init2,"ax",%progbits
 365              		.align	2
 366              		.global	ranging_init2
 367              		.thumb
 368              		.thumb_func
 369              		.type	ranging_init2, %function
 370              	ranging_init2:
 371              	.LFB72:
  99:Ranging.c     **** }
 100:Ranging.c     **** 
 101:Ranging.c     **** // Initialization for probe 2
 102:Ranging.c     **** void ranging_init2() {
 372              		.loc 1 102 0
 373              		.cfi_startproc
 374              		@ args = 0, pretend = 0, frame = 0
 375              		@ frame_needed = 0, uses_anonymous_args = 0
 376 0000 08B5     		push	{r3, lr}
 377              		.cfi_def_cfa_offset 8
 378              		.cfi_offset 3, -8
 379              		.cfi_offset 14, -4
ARM GAS  C:\Users\lab512\AppData\Local\Temp\ccX9mncH.s 			page 10


 103:Ranging.c     ****     period2 = Ranging_Timer2_ReadPeriod(); // Get period
 380              		.loc 1 103 0
 381 0002 FFF7FEFF 		bl	Ranging_Timer2_ReadPeriod
 382              	.LVL27:
 383 0006 044B     		ldr	r3, .L39
 384 0008 1860     		str	r0, [r3]
 104:Ranging.c     ****     Ranging_Timer2_Clock_Start(); // Start timer clock
 385              		.loc 1 104 0
 386 000a FFF7FEFF 		bl	Ranging_Timer2_Clock_Start
 387              	.LVL28:
 105:Ranging.c     ****     Ranging_Timeout2_StartEx(RangingTimeoutInt2); // Enable interrupt
 388              		.loc 1 105 0
 389 000e 0348     		ldr	r0, .L39+4
 390 0010 FFF7FEFF 		bl	Ranging_Timeout2_StartEx
 391              	.LVL29:
 392 0014 08BD     		pop	{r3, pc}
 393              	.L40:
 394 0016 00BF     		.align	2
 395              	.L39:
 396 0018 00000000 		.word	period2
 397 001c 00000000 		.word	RangingTimeoutInt2
 398              		.cfi_endproc
 399              	.LFE72:
 400              		.size	ranging_init2, .-ranging_init2
 401              		.section	.text.ranging_init,"ax",%progbits
 402              		.align	2
 403              		.global	ranging_init
 404              		.thumb
 405              		.thumb_func
 406              		.type	ranging_init, %function
 407              	ranging_init:
 408              	.LFB64:
  31:Ranging.c     ****     ranging_init1();
 409              		.loc 1 31 0
 410              		.cfi_startproc
 411              		@ args = 0, pretend = 0, frame = 0
 412              		@ frame_needed = 0, uses_anonymous_args = 0
 413 0000 08B5     		push	{r3, lr}
 414              		.cfi_def_cfa_offset 8
 415              		.cfi_offset 3, -8
 416              		.cfi_offset 14, -4
  32:Ranging.c     ****     ranging_init2();
 417              		.loc 1 32 0
 418 0002 FFF7FEFF 		bl	ranging_init1
 419              	.LVL30:
  33:Ranging.c     **** }
 420              		.loc 1 33 0
 421 0006 FFF7FEFF 		bl	ranging_init2
 422              	.LVL31:
 423 000a 08BD     		pop	{r3, pc}
 424              		.cfi_endproc
 425              	.LFE64:
 426              		.size	ranging_init, .-ranging_init
 427              		.section	.text.trigger2,"ax",%progbits
 428              		.align	2
 429              		.global	trigger2
 430              		.thumb
ARM GAS  C:\Users\lab512\AppData\Local\Temp\ccX9mncH.s 			page 11


 431              		.thumb_func
 432              		.type	trigger2, %function
 433              	trigger2:
 434              	.LFB73:
 106:Ranging.c     **** }
 107:Ranging.c     **** 
 108:Ranging.c     **** // Generate trigger pulse signal for probe 2
 109:Ranging.c     **** void trigger2() {
 435              		.loc 1 109 0
 436              		.cfi_startproc
 437              		@ args = 0, pretend = 0, frame = 0
 438              		@ frame_needed = 0, uses_anonymous_args = 0
 439 0000 08B5     		push	{r3, lr}
 440              		.cfi_def_cfa_offset 8
 441              		.cfi_offset 3, -8
 442              		.cfi_offset 14, -4
 110:Ranging.c     ****     Ranging_T2_Write(1);
 443              		.loc 1 110 0
 444 0002 0120     		movs	r0, #1
 445 0004 FFF7FEFF 		bl	Ranging_T2_Write
 446              	.LVL32:
 111:Ranging.c     ****     CyDelayUs(RANGING_TRIGGER);
 447              		.loc 1 111 0
 448 0008 3220     		movs	r0, #50
 449 000a FFF7FEFF 		bl	CyDelayUs
 450              	.LVL33:
 112:Ranging.c     ****     Ranging_T2_Write(0);
 451              		.loc 1 112 0
 452 000e 0020     		movs	r0, #0
 453 0010 FFF7FEFF 		bl	Ranging_T2_Write
 454              	.LVL34:
 455 0014 08BD     		pop	{r3, pc}
 456              		.cfi_endproc
 457              	.LFE73:
 458              		.size	trigger2, .-trigger2
 459 0016 00BF     		.section	.text.startcount2,"ax",%progbits
 460              		.align	2
 461              		.global	startcount2
 462              		.thumb
 463              		.thumb_func
 464              		.type	startcount2, %function
 465              	startcount2:
 466              	.LFB74:
 113:Ranging.c     **** }
 114:Ranging.c     **** 
 115:Ranging.c     **** // Set timer value and start timer for probe 2
 116:Ranging.c     **** void startcount2() {
 467              		.loc 1 116 0
 468              		.cfi_startproc
 469              		@ args = 0, pretend = 0, frame = 0
 470              		@ frame_needed = 0, uses_anonymous_args = 0
 471 0000 08B5     		push	{r3, lr}
 472              		.cfi_def_cfa_offset 8
 473              		.cfi_offset 3, -8
 474              		.cfi_offset 14, -4
 117:Ranging.c     ****     Ranging_Timer2_Start();
 475              		.loc 1 117 0
ARM GAS  C:\Users\lab512\AppData\Local\Temp\ccX9mncH.s 			page 12


 476 0002 FFF7FEFF 		bl	Ranging_Timer2_Start
 477              	.LVL35:
 118:Ranging.c     ****     Ranging_Timer2_WriteCounter(period2 - 1);
 478              		.loc 1 118 0
 479 0006 034B     		ldr	r3, .L47
 480 0008 1868     		ldr	r0, [r3]
 481 000a 0138     		subs	r0, r0, #1
 482 000c FFF7FEFF 		bl	Ranging_Timer2_WriteCounter
 483              	.LVL36:
 484 0010 08BD     		pop	{r3, pc}
 485              	.L48:
 486 0012 00BF     		.align	2
 487              	.L47:
 488 0014 00000000 		.word	period2
 489              		.cfi_endproc
 490              	.LFE74:
 491              		.size	startcount2, .-startcount2
 492              		.section	.text.endcount2,"ax",%progbits
 493              		.align	2
 494              		.global	endcount2
 495              		.thumb
 496              		.thumb_func
 497              		.type	endcount2, %function
 498              	endcount2:
 499              	.LFB75:
 119:Ranging.c     **** }
 120:Ranging.c     **** 
 121:Ranging.c     **** // Stop timer for probe 2 and get timer value, return count value
 122:Ranging.c     **** uint32 endcount2() {
 500              		.loc 1 122 0
 501              		.cfi_startproc
 502              		@ args = 0, pretend = 0, frame = 0
 503              		@ frame_needed = 0, uses_anonymous_args = 0
 504 0000 10B5     		push	{r4, lr}
 505              		.cfi_def_cfa_offset 8
 506              		.cfi_offset 4, -8
 507              		.cfi_offset 14, -4
 123:Ranging.c     ****     uint32 cnt = Ranging_Timer2_ReadCounter();
 508              		.loc 1 123 0
 509 0002 FFF7FEFF 		bl	Ranging_Timer2_ReadCounter
 510              	.LVL37:
 511 0006 0446     		mov	r4, r0
 512              	.LVL38:
 124:Ranging.c     ****     Ranging_Timer2_Stop();
 513              		.loc 1 124 0
 514 0008 FFF7FEFF 		bl	Ranging_Timer2_Stop
 515              	.LVL39:
 125:Ranging.c     ****     return period2 - 1 - cnt;
 516              		.loc 1 125 0
 517 000c 024B     		ldr	r3, .L51
 518 000e 1868     		ldr	r0, [r3]
 519 0010 001B     		subs	r0, r0, r4
 126:Ranging.c     **** }
 520              		.loc 1 126 0
 521 0012 0138     		subs	r0, r0, #1
 522 0014 10BD     		pop	{r4, pc}
 523              	.LVL40:
ARM GAS  C:\Users\lab512\AppData\Local\Temp\ccX9mncH.s 			page 13


 524              	.L52:
 525 0016 00BF     		.align	2
 526              	.L51:
 527 0018 00000000 		.word	period2
 528              		.cfi_endproc
 529              	.LFE75:
 530              		.size	endcount2, .-endcount2
 531              		.section	.text.get_millimeter2,"ax",%progbits
 532              		.align	2
 533              		.global	get_millimeter2
 534              		.thumb
 535              		.thumb_func
 536              		.type	get_millimeter2, %function
 537              	get_millimeter2:
 538              	.LFB76:
 127:Ranging.c     **** 
 128:Ranging.c     **** // Get probe 2 distance (mm)
 129:Ranging.c     **** int get_millimeter2() {
 539              		.loc 1 129 0
 540              		.cfi_startproc
 541              		@ args = 0, pretend = 0, frame = 0
 542              		@ frame_needed = 0, uses_anonymous_args = 0
 543 0000 08B5     		push	{r3, lr}
 544              		.cfi_def_cfa_offset 8
 545              		.cfi_offset 3, -8
 546              		.cfi_offset 14, -4
 130:Ranging.c     ****     uint32 cnt;
 131:Ranging.c     ****     int distance;
 132:Ranging.c     ****     startcount2();
 547              		.loc 1 132 0
 548 0002 FFF7FEFF 		bl	startcount2
 549              	.LVL41:
 133:Ranging.c     ****     trigger2();
 550              		.loc 1 133 0
 551 0006 FFF7FEFF 		bl	trigger2
 552              	.LVL42:
 553              	.L55:
 134:Ranging.c     ****     // Polling
 135:Ranging.c     ****     while (Ranging_R2_Read() == 0 && timeout2 == 0);
 554              		.loc 1 135 0 discriminator 2
 555 000a FFF7FEFF 		bl	Ranging_R2_Read
 556              	.LVL43:
 557 000e 18B9     		cbnz	r0, .L54
 558              		.loc 1 135 0 is_stmt 0 discriminator 1
 559 0010 0B4B     		ldr	r3, .L61
 560 0012 1B68     		ldr	r3, [r3]
 561 0014 002B     		cmp	r3, #0
 562 0016 F8D0     		beq	.L55
 563              	.L54:
 136:Ranging.c     ****     startcount2();
 564              		.loc 1 136 0 is_stmt 1
 565 0018 FFF7FEFF 		bl	startcount2
 566              	.LVL44:
 567              	.L57:
 137:Ranging.c     ****     while (Ranging_R2_Read() != 0 && timeout2 == 0);
 568              		.loc 1 137 0 discriminator 2
 569 001c FFF7FEFF 		bl	Ranging_R2_Read
ARM GAS  C:\Users\lab512\AppData\Local\Temp\ccX9mncH.s 			page 14


 570              	.LVL45:
 571 0020 18B1     		cbz	r0, .L56
 572              		.loc 1 137 0 is_stmt 0 discriminator 1
 573 0022 074B     		ldr	r3, .L61
 574 0024 1B68     		ldr	r3, [r3]
 575 0026 002B     		cmp	r3, #0
 576 0028 F8D0     		beq	.L57
 577              	.L56:
 138:Ranging.c     ****     cnt = endcount2();
 578              		.loc 1 138 0 is_stmt 1
 579 002a FFF7FEFF 		bl	endcount2
 580              	.LVL46:
 139:Ranging.c     ****     if (timeout2 == 0) {
 581              		.loc 1 139 0
 582 002e 044B     		ldr	r3, .L61
 583 0030 1B68     		ldr	r3, [r3]
 584 0032 13B9     		cbnz	r3, .L59
 140:Ranging.c     ****         distance = (int)calculate_millimeter(cnt);
 585              		.loc 1 140 0
 586 0034 FFF7FEFF 		bl	calculate_millimeter
 587              	.LVL47:
 588 0038 08BD     		pop	{r3, pc}
 589              	.LVL48:
 590              	.L59:
 141:Ranging.c     ****     } else {
 142:Ranging.c     ****         // If timeout, return int max
 143:Ranging.c     ****         distance = L_INT_MAX;
 591              		.loc 1 143 0
 592 003a 6FF00040 		mvn	r0, #-2147483648
 593              	.LVL49:
 144:Ranging.c     ****     }
 145:Ranging.c     ****     return distance;
 146:Ranging.c     **** }
 594              		.loc 1 146 0
 595 003e 08BD     		pop	{r3, pc}
 596              	.L62:
 597              		.align	2
 598              	.L61:
 599 0040 00000000 		.word	timeout2
 600              		.cfi_endproc
 601              	.LFE76:
 602              		.size	get_millimeter2, .-get_millimeter2
 603              		.comm	timeout2,4,4
 604              		.comm	timeout1,4,4
 605              		.comm	period2,4,4
 606              		.comm	period1,4,4
 607              		.text
 608              	.Letext0:
 609              		.file 2 "d:\\psoccreator4.2\\psoc creator\\4.2\\psoc creator\\import\\gnu\\arm\\5.4.1\\arm-none-ea
 610              		.file 3 "d:\\psoccreator4.2\\psoc creator\\4.2\\psoc creator\\import\\gnu\\arm\\5.4.1\\arm-none-ea
 611              		.file 4 "Generated_Source\\PSoC5/cytypes.h"
 612              		.file 5 "Generated_Source\\PSoC5/core_cm3.h"
 613              		.file 6 "Generated_Source\\PSoC5/Ranging_Timer1.h"
 614              		.file 7 "Generated_Source\\PSoC5/Ranging_Timer2.h"
 615              		.file 8 "Generated_Source\\PSoC5/Ranging_Timer1_Clock.h"
 616              		.file 9 "Generated_Source\\PSoC5/Ranging_Timeout1.h"
 617              		.file 10 "Generated_Source\\PSoC5/Ranging_T1.h"
ARM GAS  C:\Users\lab512\AppData\Local\Temp\ccX9mncH.s 			page 15


 618              		.file 11 "Generated_Source\\PSoC5/CyLib.h"
 619              		.file 12 "Generated_Source\\PSoC5/Ranging_R1.h"
 620              		.file 13 "Generated_Source\\PSoC5/Ranging_Timer2_Clock.h"
 621              		.file 14 "Generated_Source\\PSoC5/Ranging_Timeout2.h"
 622              		.file 15 "Generated_Source\\PSoC5/Ranging_T2.h"
 623              		.file 16 "Generated_Source\\PSoC5/Ranging_R2.h"