ARM GAS  C:\Users\lab512\AppData\Local\Temp\ccAR0DOr.s 			page 1


   1              		.syntax unified
   2              		.cpu cortex-m3
   3              		.fpu softvfp
   4              		.eabi_attribute 20, 1
   5              		.eabi_attribute 21, 1
   6              		.eabi_attribute 23, 3
   7              		.eabi_attribute 24, 1
   8              		.eabi_attribute 25, 1
   9              		.eabi_attribute 26, 1
  10              		.eabi_attribute 30, 1
  11              		.eabi_attribute 34, 1
  12              		.eabi_attribute 18, 4
  13              		.thumb
  14              		.syntax unified
  15              		.file	"Robot_arm.c"
  16              		.text
  17              	.Ltext0:
  18              		.cfi_sections	.debug_frame
  19              		.section	.text.m1_left_unit,"ax",%progbits
  20              		.align	2
  21              		.global	m1_left_unit
  22              		.thumb
  23              		.thumb_func
  24              		.type	m1_left_unit, %function
  25              	m1_left_unit:
  26              	.LFB63:
  27              		.file 1 "Robot_arm.c"
   1:Robot_arm.c   **** /* ========================================
   2:Robot_arm.c   ****  *
   3:Robot_arm.c   ****  * Copyright YOUR COMPANY, THE YEAR
   4:Robot_arm.c   ****  * All Rights Reserved
   5:Robot_arm.c   ****  * UNPUBLISHED, LICENSED SOFTWARE.
   6:Robot_arm.c   ****  *
   7:Robot_arm.c   ****  * CONFIDENTIAL AND PROPRIETARY INFORMATION
   8:Robot_arm.c   ****  * WHICH IS THE PROPERTY OF your company.
   9:Robot_arm.c   ****  *
  10:Robot_arm.c   ****  * ========================================
  11:Robot_arm.c   **** */
  12:Robot_arm.c   **** 
  13:Robot_arm.c   **** #include "project.h"
  14:Robot_arm.c   **** #include "defs.h"
  15:Robot_arm.c   **** #include "param.h"
  16:Robot_arm.c   **** 
  17:Robot_arm.c   **** //全局舵机位置，记录舵机位置
  18:Robot_arm.c   **** int cur_pos_1 = INIT_1;
  19:Robot_arm.c   **** int cur_pos_2 = INIT_2;
  20:Robot_arm.c   **** int cur_pos_3 = INIT_3;
  21:Robot_arm.c   **** int cur_pos_4 = INIT_4;
  22:Robot_arm.c   **** int cur_pos_5 = INIT_5;
  23:Robot_arm.c   **** 
  24:Robot_arm.c   **** enum SINGLE_MOTOR_MOTION_CMD{
  25:Robot_arm.c   **** 	M1_L, M1_R,
  26:Robot_arm.c   **** 	M2_F, M2_B,
  27:Robot_arm.c   **** 	M3_U, M3_D,
  28:Robot_arm.c   **** 	M4_U, M4_D,
  29:Robot_arm.c   **** 	DROP, GRAB,
  30:Robot_arm.c   **** 	RESET_INIT,
ARM GAS  C:\Users\lab512\AppData\Local\Temp\ccAR0DOr.s 			page 2


  31:Robot_arm.c   **** 	PAUSE
  32:Robot_arm.c   **** }Command;
  33:Robot_arm.c   **** 
  34:Robot_arm.c   **** #define MOVESTEP 5
  35:Robot_arm.c   **** 
  36:Robot_arm.c   **** //单舵机运动单元
  37:Robot_arm.c   **** void m1_left_unit(){
  28              		.loc 1 37 0
  29              		.cfi_startproc
  30              		@ args = 0, pretend = 0, frame = 0
  31              		@ frame_needed = 0, uses_anonymous_args = 0
  32 0000 08B5     		push	{r3, lr}
  33              		.cfi_def_cfa_offset 8
  34              		.cfi_offset 3, -8
  35              		.cfi_offset 14, -4
  38:Robot_arm.c   **** 	if(cur_pos_1 >= MIN_1 && cur_pos_1 <= MAX_1){
  36              		.loc 1 38 0
  37 0002 0B4B     		ldr	r3, .L6
  38 0004 1B68     		ldr	r3, [r3]
  39 0006 B3F5806F 		cmp	r3, #1024
  40 000a 10D2     		bcs	.L1
  41              	.LVL0:
  42              	.LBB2:
  39:Robot_arm.c   **** 		int movestep = MOVESTEP;
  40:Robot_arm.c   **** 		if(cur_pos_1 + movestep <= MAX_1){
  43              		.loc 1 40 0
  44 000c 0533     		adds	r3, r3, #5
  45 000e B3F5806F 		cmp	r3, #1024
  46 0012 02DA     		bge	.L3
  41:Robot_arm.c   **** 			cur_pos_1 += movestep;
  47              		.loc 1 41 0
  48 0014 064A     		ldr	r2, .L6
  49 0016 1360     		str	r3, [r2]
  50 0018 03E0     		b	.L4
  51              	.L3:
  42:Robot_arm.c   **** 		}
  43:Robot_arm.c   **** 		else{
  44:Robot_arm.c   **** 			cur_pos_1 = MAX_1;
  52              		.loc 1 44 0
  53 001a 40F2FF32 		movw	r2, #1023
  54 001e 044B     		ldr	r3, .L6
  55 0020 1A60     		str	r2, [r3]
  56              	.L4:
  45:Robot_arm.c   **** 		}
  46:Robot_arm.c   **** 		set_servo_pos(1, cur_pos_1, 120);
  57              		.loc 1 46 0
  58 0022 7822     		movs	r2, #120
  59 0024 024B     		ldr	r3, .L6
  60 0026 1988     		ldrh	r1, [r3]
  61 0028 0120     		movs	r0, #1
  62 002a FFF7FEFF 		bl	set_servo_pos
  63              	.LVL1:
  64              	.L1:
  65 002e 08BD     		pop	{r3, pc}
  66              	.L7:
  67              		.align	2
  68              	.L6:
ARM GAS  C:\Users\lab512\AppData\Local\Temp\ccAR0DOr.s 			page 3


  69 0030 00000000 		.word	.LANCHOR0
  70              	.LBE2:
  71              		.cfi_endproc
  72              	.LFE63:
  73              		.size	m1_left_unit, .-m1_left_unit
  74              		.section	.text.m1_right_unit,"ax",%progbits
  75              		.align	2
  76              		.global	m1_right_unit
  77              		.thumb
  78              		.thumb_func
  79              		.type	m1_right_unit, %function
  80              	m1_right_unit:
  81              	.LFB64:
  47:Robot_arm.c   **** 	}
  48:Robot_arm.c   **** 	// CyDelay(100);
  49:Robot_arm.c   **** }
  50:Robot_arm.c   **** 
  51:Robot_arm.c   **** void m1_right_unit(){
  82              		.loc 1 51 0
  83              		.cfi_startproc
  84              		@ args = 0, pretend = 0, frame = 0
  85              		@ frame_needed = 0, uses_anonymous_args = 0
  86 0000 08B5     		push	{r3, lr}
  87              		.cfi_def_cfa_offset 8
  88              		.cfi_offset 3, -8
  89              		.cfi_offset 14, -4
  52:Robot_arm.c   **** 	if(cur_pos_1 >= MIN_1 && cur_pos_1 <= MAX_1){
  90              		.loc 1 52 0
  91 0002 0A4B     		ldr	r3, .L13
  92 0004 1B68     		ldr	r3, [r3]
  93 0006 B3F5806F 		cmp	r3, #1024
  94 000a 0DD2     		bcs	.L8
  95              	.LVL2:
  96              	.LBB3:
  53:Robot_arm.c   **** 		int movestep = MOVESTEP;
  54:Robot_arm.c   **** 		if(cur_pos_1 - movestep >= MIN_1){
  97              		.loc 1 54 0
  98 000c 053B     		subs	r3, r3, #5
  99 000e 02D4     		bmi	.L10
  55:Robot_arm.c   **** 			cur_pos_1 -= movestep;
 100              		.loc 1 55 0
 101 0010 064A     		ldr	r2, .L13
 102 0012 1360     		str	r3, [r2]
 103 0014 02E0     		b	.L11
 104              	.L10:
  56:Robot_arm.c   **** 		}
  57:Robot_arm.c   **** 		else{
  58:Robot_arm.c   **** 			cur_pos_1 = MIN_1;
 105              		.loc 1 58 0
 106 0016 0022     		movs	r2, #0
 107 0018 044B     		ldr	r3, .L13
 108 001a 1A60     		str	r2, [r3]
 109              	.L11:
  59:Robot_arm.c   **** 		}
  60:Robot_arm.c   **** 		set_servo_pos(1, cur_pos_1, 120);
 110              		.loc 1 60 0
 111 001c 7822     		movs	r2, #120
ARM GAS  C:\Users\lab512\AppData\Local\Temp\ccAR0DOr.s 			page 4


 112 001e 034B     		ldr	r3, .L13
 113 0020 1988     		ldrh	r1, [r3]
 114 0022 0120     		movs	r0, #1
 115 0024 FFF7FEFF 		bl	set_servo_pos
 116              	.LVL3:
 117              	.L8:
 118 0028 08BD     		pop	{r3, pc}
 119              	.L14:
 120 002a 00BF     		.align	2
 121              	.L13:
 122 002c 00000000 		.word	.LANCHOR0
 123              	.LBE3:
 124              		.cfi_endproc
 125              	.LFE64:
 126              		.size	m1_right_unit, .-m1_right_unit
 127              		.section	.text.m2_forward_unit,"ax",%progbits
 128              		.align	2
 129              		.global	m2_forward_unit
 130              		.thumb
 131              		.thumb_func
 132              		.type	m2_forward_unit, %function
 133              	m2_forward_unit:
 134              	.LFB65:
  61:Robot_arm.c   **** 	}
  62:Robot_arm.c   **** 	// CyDelay(100);
  63:Robot_arm.c   **** }
  64:Robot_arm.c   **** 
  65:Robot_arm.c   **** void m2_forward_unit(){
 135              		.loc 1 65 0
 136              		.cfi_startproc
 137              		@ args = 0, pretend = 0, frame = 0
 138              		@ frame_needed = 0, uses_anonymous_args = 0
 139 0000 08B5     		push	{r3, lr}
 140              		.cfi_def_cfa_offset 8
 141              		.cfi_offset 3, -8
 142              		.cfi_offset 14, -4
  66:Robot_arm.c   **** 	if(cur_pos_2 >= MIN_2 && cur_pos_2 <= MAX_2){
 143              		.loc 1 66 0
 144 0002 0A4B     		ldr	r3, .L20
 145 0004 5B68     		ldr	r3, [r3, #4]
 146 0006 B3F5C87F 		cmp	r3, #400
 147 000a 0DD8     		bhi	.L15
 148              	.LVL4:
 149              	.LBB4:
  67:Robot_arm.c   **** 		int movestep = MOVESTEP;
  68:Robot_arm.c   **** 		if(cur_pos_2 - movestep >= MIN_2){
 150              		.loc 1 68 0
 151 000c 053B     		subs	r3, r3, #5
 152 000e 02D4     		bmi	.L17
  69:Robot_arm.c   **** 			cur_pos_2 -= movestep;
 153              		.loc 1 69 0
 154 0010 064A     		ldr	r2, .L20
 155 0012 5360     		str	r3, [r2, #4]
 156 0014 02E0     		b	.L18
 157              	.L17:
  70:Robot_arm.c   **** 		}
  71:Robot_arm.c   **** 		else{
ARM GAS  C:\Users\lab512\AppData\Local\Temp\ccAR0DOr.s 			page 5


  72:Robot_arm.c   **** 			cur_pos_2 = MIN_2;
 158              		.loc 1 72 0
 159 0016 0022     		movs	r2, #0
 160 0018 044B     		ldr	r3, .L20
 161 001a 5A60     		str	r2, [r3, #4]
 162              	.L18:
  73:Robot_arm.c   **** 		}
  74:Robot_arm.c   **** 		set_servo_pos(2, cur_pos_2, 120);
 163              		.loc 1 74 0
 164 001c 7822     		movs	r2, #120
 165 001e 034B     		ldr	r3, .L20
 166 0020 9988     		ldrh	r1, [r3, #4]
 167 0022 0220     		movs	r0, #2
 168 0024 FFF7FEFF 		bl	set_servo_pos
 169              	.LVL5:
 170              	.L15:
 171 0028 08BD     		pop	{r3, pc}
 172              	.L21:
 173 002a 00BF     		.align	2
 174              	.L20:
 175 002c 00000000 		.word	.LANCHOR0
 176              	.LBE4:
 177              		.cfi_endproc
 178              	.LFE65:
 179              		.size	m2_forward_unit, .-m2_forward_unit
 180              		.section	.text.m2_backward_unit,"ax",%progbits
 181              		.align	2
 182              		.global	m2_backward_unit
 183              		.thumb
 184              		.thumb_func
 185              		.type	m2_backward_unit, %function
 186              	m2_backward_unit:
 187              	.LFB66:
  75:Robot_arm.c   **** 	}
  76:Robot_arm.c   **** 	// CyDelay(100);
  77:Robot_arm.c   **** }
  78:Robot_arm.c   **** 
  79:Robot_arm.c   **** void m2_backward_unit(){
 188              		.loc 1 79 0
 189              		.cfi_startproc
 190              		@ args = 0, pretend = 0, frame = 0
 191              		@ frame_needed = 0, uses_anonymous_args = 0
 192 0000 08B5     		push	{r3, lr}
 193              		.cfi_def_cfa_offset 8
 194              		.cfi_offset 3, -8
 195              		.cfi_offset 14, -4
  80:Robot_arm.c   **** 	if(cur_pos_2 >= MIN_2 && cur_pos_2 <= MAX_2){
 196              		.loc 1 80 0
 197 0002 0B4B     		ldr	r3, .L27
 198 0004 5B68     		ldr	r3, [r3, #4]
 199 0006 B3F5C87F 		cmp	r3, #400
 200 000a 10D8     		bhi	.L22
 201              	.LVL6:
 202              	.LBB5:
  81:Robot_arm.c   **** 		int movestep = MOVESTEP;
  82:Robot_arm.c   **** 		if(cur_pos_2 + movestep <= MAX_2){
 203              		.loc 1 82 0
ARM GAS  C:\Users\lab512\AppData\Local\Temp\ccAR0DOr.s 			page 6


 204 000c 0533     		adds	r3, r3, #5
 205 000e B3F5C87F 		cmp	r3, #400
 206 0012 02DC     		bgt	.L24
  83:Robot_arm.c   **** 			cur_pos_2 += movestep;
 207              		.loc 1 83 0
 208 0014 064A     		ldr	r2, .L27
 209 0016 5360     		str	r3, [r2, #4]
 210 0018 03E0     		b	.L25
 211              	.L24:
  84:Robot_arm.c   **** 		}
  85:Robot_arm.c   **** 		else{
  86:Robot_arm.c   **** 			cur_pos_2 = MAX_2;
 212              		.loc 1 86 0
 213 001a 4FF4C872 		mov	r2, #400
 214 001e 044B     		ldr	r3, .L27
 215 0020 5A60     		str	r2, [r3, #4]
 216              	.L25:
  87:Robot_arm.c   **** 		}
  88:Robot_arm.c   **** 		set_servo_pos(2, cur_pos_2, 120);
 217              		.loc 1 88 0
 218 0022 7822     		movs	r2, #120
 219 0024 024B     		ldr	r3, .L27
 220 0026 9988     		ldrh	r1, [r3, #4]
 221 0028 0220     		movs	r0, #2
 222 002a FFF7FEFF 		bl	set_servo_pos
 223              	.LVL7:
 224              	.L22:
 225 002e 08BD     		pop	{r3, pc}
 226              	.L28:
 227              		.align	2
 228              	.L27:
 229 0030 00000000 		.word	.LANCHOR0
 230              	.LBE5:
 231              		.cfi_endproc
 232              	.LFE66:
 233              		.size	m2_backward_unit, .-m2_backward_unit
 234              		.section	.text.m3_up_unit,"ax",%progbits
 235              		.align	2
 236              		.global	m3_up_unit
 237              		.thumb
 238              		.thumb_func
 239              		.type	m3_up_unit, %function
 240              	m3_up_unit:
 241              	.LFB67:
  89:Robot_arm.c   **** 	}
  90:Robot_arm.c   **** 	// CyDelay(100);
  91:Robot_arm.c   **** }
  92:Robot_arm.c   **** 
  93:Robot_arm.c   **** void m3_up_unit(){
 242              		.loc 1 93 0
 243              		.cfi_startproc
 244              		@ args = 0, pretend = 0, frame = 0
 245              		@ frame_needed = 0, uses_anonymous_args = 0
 246 0000 08B5     		push	{r3, lr}
 247              		.cfi_def_cfa_offset 8
 248              		.cfi_offset 3, -8
 249              		.cfi_offset 14, -4
ARM GAS  C:\Users\lab512\AppData\Local\Temp\ccAR0DOr.s 			page 7


  94:Robot_arm.c   **** 	if(cur_pos_3 >= MIN_3 && cur_pos_3 <= MAX_3){
 250              		.loc 1 94 0
 251 0002 0C4B     		ldr	r3, .L34
 252 0004 9B68     		ldr	r3, [r3, #8]
 253 0006 A3F56172 		sub	r2, r3, #900
 254 000a 7B2A     		cmp	r2, #123
 255 000c 10D8     		bhi	.L29
 256              	.LVL8:
 257              	.LBB6:
  95:Robot_arm.c   **** 		int movestep = MOVESTEP;
  96:Robot_arm.c   **** 		if(cur_pos_3 + movestep <= MAX_3){
 258              		.loc 1 96 0
 259 000e 0533     		adds	r3, r3, #5
 260 0010 B3F5806F 		cmp	r3, #1024
 261 0014 02DA     		bge	.L31
  97:Robot_arm.c   **** 			cur_pos_3 += movestep;
 262              		.loc 1 97 0
 263 0016 074A     		ldr	r2, .L34
 264 0018 9360     		str	r3, [r2, #8]
 265 001a 03E0     		b	.L32
 266              	.L31:
  98:Robot_arm.c   **** 		}
  99:Robot_arm.c   **** 		else{
 100:Robot_arm.c   **** 			cur_pos_3 = MAX_3;
 267              		.loc 1 100 0
 268 001c 40F2FF32 		movw	r2, #1023
 269 0020 044B     		ldr	r3, .L34
 270 0022 9A60     		str	r2, [r3, #8]
 271              	.L32:
 101:Robot_arm.c   **** 		}
 102:Robot_arm.c   **** 		set_servo_pos(3, cur_pos_3, 120);
 272              		.loc 1 102 0
 273 0024 7822     		movs	r2, #120
 274 0026 034B     		ldr	r3, .L34
 275 0028 1989     		ldrh	r1, [r3, #8]
 276 002a 0320     		movs	r0, #3
 277 002c FFF7FEFF 		bl	set_servo_pos
 278              	.LVL9:
 279              	.L29:
 280 0030 08BD     		pop	{r3, pc}
 281              	.L35:
 282 0032 00BF     		.align	2
 283              	.L34:
 284 0034 00000000 		.word	.LANCHOR0
 285              	.LBE6:
 286              		.cfi_endproc
 287              	.LFE67:
 288              		.size	m3_up_unit, .-m3_up_unit
 289              		.section	.text.m3_down_unit,"ax",%progbits
 290              		.align	2
 291              		.global	m3_down_unit
 292              		.thumb
 293              		.thumb_func
 294              		.type	m3_down_unit, %function
 295              	m3_down_unit:
 296              	.LFB68:
 103:Robot_arm.c   **** 	}
ARM GAS  C:\Users\lab512\AppData\Local\Temp\ccAR0DOr.s 			page 8


 104:Robot_arm.c   **** 	// CyDelay(100);
 105:Robot_arm.c   **** }
 106:Robot_arm.c   **** 
 107:Robot_arm.c   **** void m3_down_unit(){
 297              		.loc 1 107 0
 298              		.cfi_startproc
 299              		@ args = 0, pretend = 0, frame = 0
 300              		@ frame_needed = 0, uses_anonymous_args = 0
 301 0000 08B5     		push	{r3, lr}
 302              		.cfi_def_cfa_offset 8
 303              		.cfi_offset 3, -8
 304              		.cfi_offset 14, -4
 108:Robot_arm.c   **** 	if(cur_pos_3 >= MIN_3 && cur_pos_3 <= MAX_3){
 305              		.loc 1 108 0
 306 0002 0C4B     		ldr	r3, .L41
 307 0004 9B68     		ldr	r3, [r3, #8]
 308 0006 A3F56172 		sub	r2, r3, #900
 309 000a 7B2A     		cmp	r2, #123
 310 000c 10D8     		bhi	.L36
 311              	.LVL10:
 312              	.LBB7:
 109:Robot_arm.c   **** 		int movestep = MOVESTEP;
 110:Robot_arm.c   **** 		if(cur_pos_3 - movestep >= MIN_3){
 313              		.loc 1 110 0
 314 000e 053B     		subs	r3, r3, #5
 315 0010 B3F5617F 		cmp	r3, #900
 316 0014 02DB     		blt	.L38
 111:Robot_arm.c   **** 			cur_pos_3 -= movestep;
 317              		.loc 1 111 0
 318 0016 074A     		ldr	r2, .L41
 319 0018 9360     		str	r3, [r2, #8]
 320 001a 03E0     		b	.L39
 321              	.L38:
 112:Robot_arm.c   **** 		}
 113:Robot_arm.c   **** 		else{
 114:Robot_arm.c   **** 			cur_pos_3 = MIN_3;
 322              		.loc 1 114 0
 323 001c 4FF46172 		mov	r2, #900
 324 0020 044B     		ldr	r3, .L41
 325 0022 9A60     		str	r2, [r3, #8]
 326              	.L39:
 115:Robot_arm.c   **** 		}
 116:Robot_arm.c   **** 		set_servo_pos(3, cur_pos_3, 120);
 327              		.loc 1 116 0
 328 0024 7822     		movs	r2, #120
 329 0026 034B     		ldr	r3, .L41
 330 0028 1989     		ldrh	r1, [r3, #8]
 331 002a 0320     		movs	r0, #3
 332 002c FFF7FEFF 		bl	set_servo_pos
 333              	.LVL11:
 334              	.L36:
 335 0030 08BD     		pop	{r3, pc}
 336              	.L42:
 337 0032 00BF     		.align	2
 338              	.L41:
 339 0034 00000000 		.word	.LANCHOR0
 340              	.LBE7:
ARM GAS  C:\Users\lab512\AppData\Local\Temp\ccAR0DOr.s 			page 9


 341              		.cfi_endproc
 342              	.LFE68:
 343              		.size	m3_down_unit, .-m3_down_unit
 344              		.section	.text.m4_up_unit,"ax",%progbits
 345              		.align	2
 346              		.global	m4_up_unit
 347              		.thumb
 348              		.thumb_func
 349              		.type	m4_up_unit, %function
 350              	m4_up_unit:
 351              	.LFB69:
 117:Robot_arm.c   **** 	}
 118:Robot_arm.c   **** 	// CyDelay(100);
 119:Robot_arm.c   **** }
 120:Robot_arm.c   **** 
 121:Robot_arm.c   **** void m4_up_unit(){
 352              		.loc 1 121 0
 353              		.cfi_startproc
 354              		@ args = 0, pretend = 0, frame = 0
 355              		@ frame_needed = 0, uses_anonymous_args = 0
 356 0000 08B5     		push	{r3, lr}
 357              		.cfi_def_cfa_offset 8
 358              		.cfi_offset 3, -8
 359              		.cfi_offset 14, -4
 122:Robot_arm.c   **** 	if(cur_pos_4 >= MIN_4 && cur_pos_4 <= MAX_4){
 360              		.loc 1 122 0
 361 0002 0C4B     		ldr	r3, .L48
 362 0004 DB68     		ldr	r3, [r3, #12]
 363 0006 A3F15002 		sub	r2, r3, #80
 364 000a B2F5347F 		cmp	r2, #720
 365 000e 10D8     		bhi	.L43
 366              	.LVL12:
 367              	.LBB8:
 123:Robot_arm.c   **** 		int movestep = MOVESTEP;
 124:Robot_arm.c   **** 		if(cur_pos_4 + movestep <= MAX_4){
 368              		.loc 1 124 0
 369 0010 0533     		adds	r3, r3, #5
 370 0012 B3F5487F 		cmp	r3, #800
 371 0016 02DC     		bgt	.L45
 125:Robot_arm.c   **** 			cur_pos_4 += movestep;
 372              		.loc 1 125 0
 373 0018 064A     		ldr	r2, .L48
 374 001a D360     		str	r3, [r2, #12]
 375 001c 03E0     		b	.L46
 376              	.L45:
 126:Robot_arm.c   **** 		}
 127:Robot_arm.c   **** 		else{
 128:Robot_arm.c   **** 			cur_pos_4 = MAX_4;
 377              		.loc 1 128 0
 378 001e 4FF44872 		mov	r2, #800
 379 0022 044B     		ldr	r3, .L48
 380 0024 DA60     		str	r2, [r3, #12]
 381              	.L46:
 129:Robot_arm.c   **** 		}
 130:Robot_arm.c   **** 		set_servo_pos(4, cur_pos_4, 120);
 382              		.loc 1 130 0
 383 0026 7822     		movs	r2, #120
ARM GAS  C:\Users\lab512\AppData\Local\Temp\ccAR0DOr.s 			page 10


 384 0028 024B     		ldr	r3, .L48
 385 002a 9989     		ldrh	r1, [r3, #12]
 386 002c 0420     		movs	r0, #4
 387 002e FFF7FEFF 		bl	set_servo_pos
 388              	.LVL13:
 389              	.L43:
 390 0032 08BD     		pop	{r3, pc}
 391              	.L49:
 392              		.align	2
 393              	.L48:
 394 0034 00000000 		.word	.LANCHOR0
 395              	.LBE8:
 396              		.cfi_endproc
 397              	.LFE69:
 398              		.size	m4_up_unit, .-m4_up_unit
 399              		.section	.text.m4_down_unit,"ax",%progbits
 400              		.align	2
 401              		.global	m4_down_unit
 402              		.thumb
 403              		.thumb_func
 404              		.type	m4_down_unit, %function
 405              	m4_down_unit:
 406              	.LFB70:
 131:Robot_arm.c   **** 	}
 132:Robot_arm.c   **** 	// CyDelay(100);
 133:Robot_arm.c   **** }
 134:Robot_arm.c   **** 
 135:Robot_arm.c   **** void m4_down_unit(){
 407              		.loc 1 135 0
 408              		.cfi_startproc
 409              		@ args = 0, pretend = 0, frame = 0
 410              		@ frame_needed = 0, uses_anonymous_args = 0
 411 0000 08B5     		push	{r3, lr}
 412              		.cfi_def_cfa_offset 8
 413              		.cfi_offset 3, -8
 414              		.cfi_offset 14, -4
 136:Robot_arm.c   **** 	if(cur_pos_4 >= MIN_4 && cur_pos_4 <= MAX_4){
 415              		.loc 1 136 0
 416 0002 0B4B     		ldr	r3, .L55
 417 0004 DB68     		ldr	r3, [r3, #12]
 418 0006 A3F15002 		sub	r2, r3, #80
 419 000a B2F5347F 		cmp	r2, #720
 420 000e 0ED8     		bhi	.L50
 421              	.LVL14:
 422              	.LBB9:
 137:Robot_arm.c   **** 		int movestep = MOVESTEP;
 138:Robot_arm.c   **** 		if(cur_pos_4 - movestep >= MIN_4){
 423              		.loc 1 138 0
 424 0010 053B     		subs	r3, r3, #5
 425 0012 4F2B     		cmp	r3, #79
 426 0014 02DD     		ble	.L52
 139:Robot_arm.c   **** 			cur_pos_4 -= movestep;
 427              		.loc 1 139 0
 428 0016 064A     		ldr	r2, .L55
 429 0018 D360     		str	r3, [r2, #12]
 430 001a 02E0     		b	.L53
 431              	.L52:
ARM GAS  C:\Users\lab512\AppData\Local\Temp\ccAR0DOr.s 			page 11


 140:Robot_arm.c   **** 		}
 141:Robot_arm.c   **** 		else{
 142:Robot_arm.c   **** 			cur_pos_4 = MIN_4;
 432              		.loc 1 142 0
 433 001c 5022     		movs	r2, #80
 434 001e 044B     		ldr	r3, .L55
 435 0020 DA60     		str	r2, [r3, #12]
 436              	.L53:
 143:Robot_arm.c   **** 		}
 144:Robot_arm.c   **** 		set_servo_pos(4, cur_pos_4, 120);
 437              		.loc 1 144 0
 438 0022 7822     		movs	r2, #120
 439 0024 024B     		ldr	r3, .L55
 440 0026 9989     		ldrh	r1, [r3, #12]
 441 0028 0420     		movs	r0, #4
 442 002a FFF7FEFF 		bl	set_servo_pos
 443              	.LVL15:
 444              	.L50:
 445 002e 08BD     		pop	{r3, pc}
 446              	.L56:
 447              		.align	2
 448              	.L55:
 449 0030 00000000 		.word	.LANCHOR0
 450              	.LBE9:
 451              		.cfi_endproc
 452              	.LFE70:
 453              		.size	m4_down_unit, .-m4_down_unit
 454              		.section	.text.forward_move_unit,"ax",%progbits
 455              		.align	2
 456              		.global	forward_move_unit
 457              		.thumb
 458              		.thumb_func
 459              		.type	forward_move_unit, %function
 460              	forward_move_unit:
 461              	.LFB71:
 145:Robot_arm.c   **** 	}
 146:Robot_arm.c   **** 	// CyDelay(100);
 147:Robot_arm.c   **** }
 148:Robot_arm.c   **** 
 149:Robot_arm.c   **** //optional 组合运动单元
 150:Robot_arm.c   **** void forward_move_unit(){
 462              		.loc 1 150 0
 463              		.cfi_startproc
 464              		@ args = 0, pretend = 0, frame = 0
 465              		@ frame_needed = 0, uses_anonymous_args = 0
 466              		@ link register save eliminated.
 467 0000 7047     		bx	lr
 468              		.cfi_endproc
 469              	.LFE71:
 470              		.size	forward_move_unit, .-forward_move_unit
 471 0002 00BF     		.section	.text.backward_move_unit,"ax",%progbits
 472              		.align	2
 473              		.global	backward_move_unit
 474              		.thumb
 475              		.thumb_func
 476              		.type	backward_move_unit, %function
 477              	backward_move_unit:
ARM GAS  C:\Users\lab512\AppData\Local\Temp\ccAR0DOr.s 			page 12


 478              	.LFB72:
 151:Robot_arm.c   **** 
 152:Robot_arm.c   **** }
 153:Robot_arm.c   **** 
 154:Robot_arm.c   **** void backward_move_unit(){
 479              		.loc 1 154 0
 480              		.cfi_startproc
 481              		@ args = 0, pretend = 0, frame = 0
 482              		@ frame_needed = 0, uses_anonymous_args = 0
 483              		@ link register save eliminated.
 484 0000 7047     		bx	lr
 485              		.cfi_endproc
 486              	.LFE72:
 487              		.size	backward_move_unit, .-backward_move_unit
 488 0002 00BF     		.section	.text.upward_move_unit,"ax",%progbits
 489              		.align	2
 490              		.global	upward_move_unit
 491              		.thumb
 492              		.thumb_func
 493              		.type	upward_move_unit, %function
 494              	upward_move_unit:
 495              	.LFB73:
 155:Robot_arm.c   **** 
 156:Robot_arm.c   **** }
 157:Robot_arm.c   **** 
 158:Robot_arm.c   **** void upward_move_unit(){
 496              		.loc 1 158 0
 497              		.cfi_startproc
 498              		@ args = 0, pretend = 0, frame = 0
 499              		@ frame_needed = 0, uses_anonymous_args = 0
 500              		@ link register save eliminated.
 501 0000 7047     		bx	lr
 502              		.cfi_endproc
 503              	.LFE73:
 504              		.size	upward_move_unit, .-upward_move_unit
 505 0002 00BF     		.section	.text.downward_move_unit,"ax",%progbits
 506              		.align	2
 507              		.global	downward_move_unit
 508              		.thumb
 509              		.thumb_func
 510              		.type	downward_move_unit, %function
 511              	downward_move_unit:
 512              	.LFB74:
 159:Robot_arm.c   **** 
 160:Robot_arm.c   **** }
 161:Robot_arm.c   **** 
 162:Robot_arm.c   **** void downward_move_unit(){
 513              		.loc 1 162 0
 514              		.cfi_startproc
 515              		@ args = 0, pretend = 0, frame = 0
 516              		@ frame_needed = 0, uses_anonymous_args = 0
 517              		@ link register save eliminated.
 518 0000 7047     		bx	lr
 519              		.cfi_endproc
 520              	.LFE74:
 521              		.size	downward_move_unit, .-downward_move_unit
 522 0002 00BF     		.section	.text.left_move_unit,"ax",%progbits
ARM GAS  C:\Users\lab512\AppData\Local\Temp\ccAR0DOr.s 			page 13


 523              		.align	2
 524              		.global	left_move_unit
 525              		.thumb
 526              		.thumb_func
 527              		.type	left_move_unit, %function
 528              	left_move_unit:
 529              	.LFB75:
 163:Robot_arm.c   **** 
 164:Robot_arm.c   **** }
 165:Robot_arm.c   **** 
 166:Robot_arm.c   **** void left_move_unit(){
 530              		.loc 1 166 0
 531              		.cfi_startproc
 532              		@ args = 0, pretend = 0, frame = 0
 533              		@ frame_needed = 0, uses_anonymous_args = 0
 534              		@ link register save eliminated.
 535 0000 7047     		bx	lr
 536              		.cfi_endproc
 537              	.LFE75:
 538              		.size	left_move_unit, .-left_move_unit
 539 0002 00BF     		.section	.text.right_move_unit,"ax",%progbits
 540              		.align	2
 541              		.global	right_move_unit
 542              		.thumb
 543              		.thumb_func
 544              		.type	right_move_unit, %function
 545              	right_move_unit:
 546              	.LFB76:
 167:Robot_arm.c   **** 
 168:Robot_arm.c   **** }
 169:Robot_arm.c   **** 
 170:Robot_arm.c   **** void right_move_unit(){
 547              		.loc 1 170 0
 548              		.cfi_startproc
 549              		@ args = 0, pretend = 0, frame = 0
 550              		@ frame_needed = 0, uses_anonymous_args = 0
 551              		@ link register save eliminated.
 552 0000 7047     		bx	lr
 553              		.cfi_endproc
 554              	.LFE76:
 555              		.size	right_move_unit, .-right_move_unit
 556 0002 00BF     		.section	.text.drop,"ax",%progbits
 557              		.align	2
 558              		.global	drop
 559              		.thumb
 560              		.thumb_func
 561              		.type	drop, %function
 562              	drop:
 563              	.LFB77:
 171:Robot_arm.c   **** 
 172:Robot_arm.c   **** }
 173:Robot_arm.c   **** 
 174:Robot_arm.c   **** void drop(){
 564              		.loc 1 174 0
 565              		.cfi_startproc
 566              		@ args = 0, pretend = 0, frame = 0
 567              		@ frame_needed = 0, uses_anonymous_args = 0
ARM GAS  C:\Users\lab512\AppData\Local\Temp\ccAR0DOr.s 			page 14


 568              		.loc 1 174 0
 569 0000 08B5     		push	{r3, lr}
 570              		.cfi_def_cfa_offset 8
 571              		.cfi_offset 3, -8
 572              		.cfi_offset 14, -4
 175:Robot_arm.c   **** 	cur_pos_5 = MAX_5;
 573              		.loc 1 175 0
 574 0002 4FF44871 		mov	r1, #800
 575 0006 054B     		ldr	r3, .L65
 576 0008 1961     		str	r1, [r3, #16]
 176:Robot_arm.c   **** 	set_servo_pos(5, cur_pos_5, 150);
 577              		.loc 1 176 0
 578 000a 9622     		movs	r2, #150
 579 000c 0520     		movs	r0, #5
 580 000e FFF7FEFF 		bl	set_servo_pos
 581              	.LVL16:
 177:Robot_arm.c   **** 	CyDelay(1000);
 582              		.loc 1 177 0
 583 0012 4FF47A70 		mov	r0, #1000
 584 0016 FFF7FEFF 		bl	CyDelay
 585              	.LVL17:
 586 001a 08BD     		pop	{r3, pc}
 587              	.L66:
 588              		.align	2
 589              	.L65:
 590 001c 00000000 		.word	.LANCHOR0
 591              		.cfi_endproc
 592              	.LFE77:
 593              		.size	drop, .-drop
 594              		.section	.text.grab,"ax",%progbits
 595              		.align	2
 596              		.global	grab
 597              		.thumb
 598              		.thumb_func
 599              		.type	grab, %function
 600              	grab:
 601              	.LFB78:
 178:Robot_arm.c   **** }
 179:Robot_arm.c   **** 
 180:Robot_arm.c   **** void grab(){
 602              		.loc 1 180 0
 603              		.cfi_startproc
 604              		@ args = 0, pretend = 0, frame = 0
 605              		@ frame_needed = 0, uses_anonymous_args = 0
 606 0000 08B5     		push	{r3, lr}
 607              		.cfi_def_cfa_offset 8
 608              		.cfi_offset 3, -8
 609              		.cfi_offset 14, -4
 181:Robot_arm.c   **** 	cur_pos_5 = MIN_5;
 610              		.loc 1 181 0
 611 0002 4FF41671 		mov	r1, #600
 612 0006 054B     		ldr	r3, .L69
 613 0008 1961     		str	r1, [r3, #16]
 182:Robot_arm.c   **** 	set_servo_pos(5, cur_pos_5, 150);
 614              		.loc 1 182 0
 615 000a 9622     		movs	r2, #150
 616 000c 0520     		movs	r0, #5
ARM GAS  C:\Users\lab512\AppData\Local\Temp\ccAR0DOr.s 			page 15


 617 000e FFF7FEFF 		bl	set_servo_pos
 618              	.LVL18:
 183:Robot_arm.c   **** 	CyDelay(1000);
 619              		.loc 1 183 0
 620 0012 4FF47A70 		mov	r0, #1000
 621 0016 FFF7FEFF 		bl	CyDelay
 622              	.LVL19:
 623 001a 08BD     		pop	{r3, pc}
 624              	.L70:
 625              		.align	2
 626              	.L69:
 627 001c 00000000 		.word	.LANCHOR0
 628              		.cfi_endproc
 629              	.LFE78:
 630              		.size	grab, .-grab
 631              		.section	.text.reset_init_pos,"ax",%progbits
 632              		.align	2
 633              		.global	reset_init_pos
 634              		.thumb
 635              		.thumb_func
 636              		.type	reset_init_pos, %function
 637              	reset_init_pos:
 638              	.LFB79:
 184:Robot_arm.c   **** }
 185:Robot_arm.c   **** 
 186:Robot_arm.c   **** void reset_init_pos(){
 639              		.loc 1 186 0
 640              		.cfi_startproc
 641              		@ args = 0, pretend = 0, frame = 0
 642              		@ frame_needed = 0, uses_anonymous_args = 0
 643 0000 08B5     		push	{r3, lr}
 644              		.cfi_def_cfa_offset 8
 645              		.cfi_offset 3, -8
 646              		.cfi_offset 14, -4
 187:Robot_arm.c   **** 	//位置初始化 or 复位操作
 188:Robot_arm.c   **** 	//首先移动到安全位置
 189:Robot_arm.c   **** 	set_servo_pos(4,440,100);
 647              		.loc 1 189 0
 648 0002 6422     		movs	r2, #100
 649 0004 4FF4DC71 		mov	r1, #440
 650 0008 0420     		movs	r0, #4
 651 000a FFF7FEFF 		bl	set_servo_pos
 652              	.LVL20:
 190:Robot_arm.c   **** 	CyDelay(500);
 653              		.loc 1 190 0
 654 000e 4FF4FA70 		mov	r0, #500
 655 0012 FFF7FEFF 		bl	CyDelay
 656              	.LVL21:
 191:Robot_arm.c   **** 	set_servo_pos(3,1022,150);
 657              		.loc 1 191 0
 658 0016 9622     		movs	r2, #150
 659 0018 40F2FE31 		movw	r1, #1022
 660 001c 0320     		movs	r0, #3
 661 001e FFF7FEFF 		bl	set_servo_pos
 662              	.LVL22:
 192:Robot_arm.c   **** 	CyDelay(500);
 663              		.loc 1 192 0
ARM GAS  C:\Users\lab512\AppData\Local\Temp\ccAR0DOr.s 			page 16


 664 0022 4FF4FA70 		mov	r0, #500
 665 0026 FFF7FEFF 		bl	CyDelay
 666              	.LVL23:
 193:Robot_arm.c   **** 	set_servo_pos(2,250,150);
 667              		.loc 1 193 0
 668 002a 9622     		movs	r2, #150
 669 002c FA21     		movs	r1, #250
 670 002e 0220     		movs	r0, #2
 671 0030 FFF7FEFF 		bl	set_servo_pos
 672              	.LVL24:
 194:Robot_arm.c   **** 	CyDelay(500);
 673              		.loc 1 194 0
 674 0034 4FF4FA70 		mov	r0, #500
 675 0038 FFF7FEFF 		bl	CyDelay
 676              	.LVL25:
 195:Robot_arm.c   **** 
 196:Robot_arm.c   **** 	//然后进行缓慢复位操作
 197:Robot_arm.c   **** 	set_servo_pos(1,INIT_1,150);
 677              		.loc 1 197 0
 678 003c 9622     		movs	r2, #150
 679 003e 40F23A21 		movw	r1, #570
 680 0042 0120     		movs	r0, #1
 681 0044 FFF7FEFF 		bl	set_servo_pos
 682              	.LVL26:
 198:Robot_arm.c   **** 	CyDelay(200);
 683              		.loc 1 198 0
 684 0048 C820     		movs	r0, #200
 685 004a FFF7FEFF 		bl	CyDelay
 686              	.LVL27:
 199:Robot_arm.c   **** 	set_servo_pos(2,INIT_2,150);
 687              		.loc 1 199 0
 688 004e 9622     		movs	r2, #150
 689 0050 4FF49671 		mov	r1, #300
 690 0054 0220     		movs	r0, #2
 691 0056 FFF7FEFF 		bl	set_servo_pos
 692              	.LVL28:
 200:Robot_arm.c   **** 	CyDelay(200);
 693              		.loc 1 200 0
 694 005a C820     		movs	r0, #200
 695 005c FFF7FEFF 		bl	CyDelay
 696              	.LVL29:
 201:Robot_arm.c   **** 	set_servo_pos(3,INIT_3,150);
 697              		.loc 1 201 0
 698 0060 9622     		movs	r2, #150
 699 0062 4FF46171 		mov	r1, #900
 700 0066 0320     		movs	r0, #3
 701 0068 FFF7FEFF 		bl	set_servo_pos
 702              	.LVL30:
 202:Robot_arm.c   **** 	CyDelay(200);
 703              		.loc 1 202 0
 704 006c C820     		movs	r0, #200
 705 006e FFF7FEFF 		bl	CyDelay
 706              	.LVL31:
 203:Robot_arm.c   **** 	set_servo_pos(4,INIT_4,150);
 707              		.loc 1 203 0
 708 0072 9622     		movs	r2, #150
 709 0074 AA21     		movs	r1, #170
ARM GAS  C:\Users\lab512\AppData\Local\Temp\ccAR0DOr.s 			page 17


 710 0076 0420     		movs	r0, #4
 711 0078 FFF7FEFF 		bl	set_servo_pos
 712              	.LVL32:
 204:Robot_arm.c   **** 	CyDelay(200);
 713              		.loc 1 204 0
 714 007c C820     		movs	r0, #200
 715 007e FFF7FEFF 		bl	CyDelay
 716              	.LVL33:
 205:Robot_arm.c   **** 	set_servo_pos(5,INIT_5,150);
 717              		.loc 1 205 0
 718 0082 9622     		movs	r2, #150
 719 0084 4FF41671 		mov	r1, #600
 720 0088 0520     		movs	r0, #5
 721 008a FFF7FEFF 		bl	set_servo_pos
 722              	.LVL34:
 206:Robot_arm.c   **** 	//set_servo_pos(6,INIT_6,100);
 207:Robot_arm.c   **** 	CyDelay(2000);
 723              		.loc 1 207 0
 724 008e 4FF4FA60 		mov	r0, #2000
 725 0092 FFF7FEFF 		bl	CyDelay
 726              	.LVL35:
 208:Robot_arm.c   **** 
 209:Robot_arm.c   **** 	cur_pos_1 = INIT_1;
 727              		.loc 1 209 0
 728 0096 084B     		ldr	r3, .L73
 729 0098 40F23A22 		movw	r2, #570
 730 009c 1A60     		str	r2, [r3]
 210:Robot_arm.c   **** 	cur_pos_2 = INIT_2;
 731              		.loc 1 210 0
 732 009e 4FF49672 		mov	r2, #300
 733 00a2 5A60     		str	r2, [r3, #4]
 211:Robot_arm.c   **** 	cur_pos_3 = INIT_3;
 734              		.loc 1 211 0
 735 00a4 4FF46172 		mov	r2, #900
 736 00a8 9A60     		str	r2, [r3, #8]
 212:Robot_arm.c   **** 	cur_pos_4 = INIT_4;
 737              		.loc 1 212 0
 738 00aa AA22     		movs	r2, #170
 739 00ac DA60     		str	r2, [r3, #12]
 213:Robot_arm.c   **** 	cur_pos_5 = INIT_5;
 740              		.loc 1 213 0
 741 00ae 4FF41672 		mov	r2, #600
 742 00b2 1A61     		str	r2, [r3, #16]
 743 00b4 08BD     		pop	{r3, pc}
 744              	.L74:
 745 00b6 00BF     		.align	2
 746              	.L73:
 747 00b8 00000000 		.word	.LANCHOR0
 748              		.cfi_endproc
 749              	.LFE79:
 750              		.size	reset_init_pos, .-reset_init_pos
 751              		.section	.text.simu_fetch,"ax",%progbits
 752              		.align	2
 753              		.global	simu_fetch
 754              		.thumb
 755              		.thumb_func
 756              		.type	simu_fetch, %function
ARM GAS  C:\Users\lab512\AppData\Local\Temp\ccAR0DOr.s 			page 18


 757              	simu_fetch:
 758              	.LFB80:
 214:Robot_arm.c   **** }
 215:Robot_arm.c   **** 
 216:Robot_arm.c   **** void simu_fetch(){
 759              		.loc 1 216 0
 760              		.cfi_startproc
 761              		@ args = 0, pretend = 0, frame = 0
 762              		@ frame_needed = 0, uses_anonymous_args = 0
 763 0000 10B5     		push	{r4, lr}
 764              		.cfi_def_cfa_offset 8
 765              		.cfi_offset 4, -8
 766              		.cfi_offset 14, -4
 767              	.LVL36:
 768              	.LBB10:
 217:Robot_arm.c   **** 	for(int i = 0;i < 20;i++){
 769              		.loc 1 217 0
 770 0002 0024     		movs	r4, #0
 771 0004 04E0     		b	.L76
 772              	.LVL37:
 773              	.L77:
 218:Robot_arm.c   **** 		m4_up_unit();
 774              		.loc 1 218 0 discriminator 3
 775 0006 FFF7FEFF 		bl	m4_up_unit
 776              	.LVL38:
 219:Robot_arm.c   **** 		m1_left_unit();
 777              		.loc 1 219 0 discriminator 3
 778 000a FFF7FEFF 		bl	m1_left_unit
 779              	.LVL39:
 217:Robot_arm.c   **** 	for(int i = 0;i < 20;i++){
 780              		.loc 1 217 0 discriminator 3
 781 000e 0134     		adds	r4, r4, #1
 782              	.LVL40:
 783              	.L76:
 217:Robot_arm.c   **** 	for(int i = 0;i < 20;i++){
 784              		.loc 1 217 0 is_stmt 0 discriminator 1
 785 0010 132C     		cmp	r4, #19
 786 0012 F8DD     		ble	.L77
 787 0014 0024     		movs	r4, #0
 788              	.LVL41:
 789 0016 04E0     		b	.L78
 790              	.LVL42:
 791              	.L79:
 792              	.LBE10:
 793              	.LBB11:
 220:Robot_arm.c   **** 	}
 221:Robot_arm.c   **** 
 222:Robot_arm.c   **** 	for(int i = 0;i < 20;i++){
 223:Robot_arm.c   **** 		m4_up_unit();
 794              		.loc 1 223 0 is_stmt 1 discriminator 3
 795 0018 FFF7FEFF 		bl	m4_up_unit
 796              	.LVL43:
 224:Robot_arm.c   **** 		m2_forward_unit();
 797              		.loc 1 224 0 discriminator 3
 798 001c FFF7FEFF 		bl	m2_forward_unit
 799              	.LVL44:
 222:Robot_arm.c   **** 		m4_up_unit();
ARM GAS  C:\Users\lab512\AppData\Local\Temp\ccAR0DOr.s 			page 19


 800              		.loc 1 222 0 discriminator 3
 801 0020 0134     		adds	r4, r4, #1
 802              	.LVL45:
 803              	.L78:
 222:Robot_arm.c   **** 		m4_up_unit();
 804              		.loc 1 222 0 is_stmt 0 discriminator 1
 805 0022 132C     		cmp	r4, #19
 806 0024 F8DD     		ble	.L79
 807 0026 0024     		movs	r4, #0
 808              	.LVL46:
 809 0028 02E0     		b	.L80
 810              	.LVL47:
 811              	.L81:
 812              	.LBE11:
 813              	.LBB12:
 225:Robot_arm.c   **** 	}
 226:Robot_arm.c   **** 	for(int i = 0;i < 40;i++){
 227:Robot_arm.c   **** 		m4_up_unit();
 814              		.loc 1 227 0 is_stmt 1 discriminator 3
 815 002a FFF7FEFF 		bl	m4_up_unit
 816              	.LVL48:
 226:Robot_arm.c   **** 		m4_up_unit();
 817              		.loc 1 226 0 discriminator 3
 818 002e 0134     		adds	r4, r4, #1
 819              	.LVL49:
 820              	.L80:
 226:Robot_arm.c   **** 		m4_up_unit();
 821              		.loc 1 226 0 is_stmt 0 discriminator 1
 822 0030 272C     		cmp	r4, #39
 823 0032 FADD     		ble	.L81
 824 0034 0024     		movs	r4, #0
 825              	.LVL50:
 826 0036 06E0     		b	.L82
 827              	.LVL51:
 828              	.L83:
 829              	.LBE12:
 830              	.LBB13:
 228:Robot_arm.c   **** 	}
 229:Robot_arm.c   **** 	for(int i = 0;i < 20;i++){
 230:Robot_arm.c   **** 		m3_down_unit();
 831              		.loc 1 230 0 is_stmt 1 discriminator 3
 832 0038 FFF7FEFF 		bl	m3_down_unit
 833              	.LVL52:
 231:Robot_arm.c   **** 		m4_up_unit();
 834              		.loc 1 231 0 discriminator 3
 835 003c FFF7FEFF 		bl	m4_up_unit
 836              	.LVL53:
 232:Robot_arm.c   **** 		m2_forward_unit();
 837              		.loc 1 232 0 discriminator 3
 838 0040 FFF7FEFF 		bl	m2_forward_unit
 839              	.LVL54:
 229:Robot_arm.c   **** 		m3_down_unit();
 840              		.loc 1 229 0 discriminator 3
 841 0044 0134     		adds	r4, r4, #1
 842              	.LVL55:
 843              	.L82:
 229:Robot_arm.c   **** 		m3_down_unit();
ARM GAS  C:\Users\lab512\AppData\Local\Temp\ccAR0DOr.s 			page 20


 844              		.loc 1 229 0 is_stmt 0 discriminator 1
 845 0046 132C     		cmp	r4, #19
 846 0048 F6DD     		ble	.L83
 847              	.LBE13:
 233:Robot_arm.c   **** 	}
 234:Robot_arm.c   **** 
 235:Robot_arm.c   **** 	drop();
 848              		.loc 1 235 0 is_stmt 1
 849 004a FFF7FEFF 		bl	drop
 850              	.LVL56:
 236:Robot_arm.c   **** 	CyDelay(5000);
 851              		.loc 1 236 0
 852 004e 41F28830 		movw	r0, #5000
 853 0052 FFF7FEFF 		bl	CyDelay
 854              	.LVL57:
 237:Robot_arm.c   **** 	grab();
 855              		.loc 1 237 0
 856 0056 FFF7FEFF 		bl	grab
 857              	.LVL58:
 238:Robot_arm.c   **** 
 239:Robot_arm.c   **** 	CyDelay(5000);
 858              		.loc 1 239 0
 859 005a 41F28830 		movw	r0, #5000
 860 005e FFF7FEFF 		bl	CyDelay
 861              	.LVL59:
 240:Robot_arm.c   **** 
 241:Robot_arm.c   **** 	reset_init_pos();
 862              		.loc 1 241 0
 863 0062 FFF7FEFF 		bl	reset_init_pos
 864              	.LVL60:
 865 0066 10BD     		pop	{r4, pc}
 866              		.cfi_endproc
 867              	.LFE80:
 868              		.size	simu_fetch, .-simu_fetch
 869              		.section	.text.pause,"ax",%progbits
 870              		.align	2
 871              		.global	pause
 872              		.thumb
 873              		.thumb_func
 874              		.type	pause, %function
 875              	pause:
 876              	.LFB81:
 242:Robot_arm.c   **** }
 243:Robot_arm.c   **** 
 244:Robot_arm.c   **** void pause(){
 877              		.loc 1 244 0
 878              		.cfi_startproc
 879              		@ args = 0, pretend = 0, frame = 0
 880              		@ frame_needed = 0, uses_anonymous_args = 0
 881 0000 08B5     		push	{r3, lr}
 882              		.cfi_def_cfa_offset 8
 883              		.cfi_offset 3, -8
 884              		.cfi_offset 14, -4
 245:Robot_arm.c   ****     set_servo_velocity(1, 0);
 885              		.loc 1 245 0
 886 0002 0021     		movs	r1, #0
 887 0004 0120     		movs	r0, #1
ARM GAS  C:\Users\lab512\AppData\Local\Temp\ccAR0DOr.s 			page 21


 888 0006 FFF7FEFF 		bl	set_servo_velocity
 889              	.LVL61:
 246:Robot_arm.c   **** 	set_servo_velocity(2, 0);
 890              		.loc 1 246 0
 891 000a 0021     		movs	r1, #0
 892 000c 0220     		movs	r0, #2
 893 000e FFF7FEFF 		bl	set_servo_velocity
 894              	.LVL62:
 247:Robot_arm.c   **** 	set_servo_velocity(3, 0);
 895              		.loc 1 247 0
 896 0012 0021     		movs	r1, #0
 897 0014 0320     		movs	r0, #3
 898 0016 FFF7FEFF 		bl	set_servo_velocity
 899              	.LVL63:
 248:Robot_arm.c   **** 	set_servo_velocity(4, 0);
 900              		.loc 1 248 0
 901 001a 0021     		movs	r1, #0
 902 001c 0420     		movs	r0, #4
 903 001e FFF7FEFF 		bl	set_servo_velocity
 904              	.LVL64:
 249:Robot_arm.c   **** 	set_servo_velocity(5, 0);
 905              		.loc 1 249 0
 906 0022 0021     		movs	r1, #0
 907 0024 0520     		movs	r0, #5
 908 0026 FFF7FEFF 		bl	set_servo_velocity
 909              	.LVL65:
 910 002a 08BD     		pop	{r3, pc}
 911              		.cfi_endproc
 912              	.LFE81:
 913              		.size	pause, .-pause
 914              		.section	.text.steering_engine_controller,"ax",%progbits
 915              		.align	2
 916              		.global	steering_engine_controller
 917              		.thumb
 918              		.thumb_func
 919              		.type	steering_engine_controller, %function
 920              	steering_engine_controller:
 921              	.LFB82:
 250:Robot_arm.c   **** }
 251:Robot_arm.c   **** 
 252:Robot_arm.c   **** //基于单舵机运动单元的控制器
 253:Robot_arm.c   **** void steering_engine_controller(){
 922              		.loc 1 253 0
 923              		.cfi_startproc
 924              		@ Volatile: function does not return.
 925              		@ args = 0, pretend = 0, frame = 0
 926              		@ frame_needed = 0, uses_anonymous_args = 0
 927 0000 08B5     		push	{r3, lr}
 928              		.cfi_def_cfa_offset 8
 929              		.cfi_offset 3, -8
 930              		.cfi_offset 14, -4
 254:Robot_arm.c   **** 	//reset, initialize first
 255:Robot_arm.c   **** 	reset_init_pos();
 931              		.loc 1 255 0
 932 0002 FFF7FEFF 		bl	reset_init_pos
 933              	.LVL66:
 934              	.L88:
ARM GAS  C:\Users\lab512\AppData\Local\Temp\ccAR0DOr.s 			page 22


 256:Robot_arm.c   **** 
 257:Robot_arm.c   **** 	//控制器主循环，死循环
 258:Robot_arm.c   **** 	while(1){
 259:Robot_arm.c   **** 
 260:Robot_arm.c   **** 		if(Command == M1_L){
 935              		.loc 1 260 0
 936 0006 274B     		ldr	r3, .L117
 937 0008 1B78     		ldrb	r3, [r3]	@ zero_extendqisi2
 938 000a 13B1     		cbz	r3, .L89
 939 000c 06E0     		b	.L112
 940              	.L91:
 261:Robot_arm.c   **** 			while(Command == M1_L){
 262:Robot_arm.c   **** 				m1_left_unit();
 941              		.loc 1 262 0
 942 000e FFF7FEFF 		bl	m1_left_unit
 943              	.LVL67:
 944              	.L89:
 261:Robot_arm.c   **** 			while(Command == M1_L){
 945              		.loc 1 261 0
 946 0012 244B     		ldr	r3, .L117
 947 0014 1B78     		ldrb	r3, [r3]	@ zero_extendqisi2
 948 0016 002B     		cmp	r3, #0
 949 0018 F5D1     		bne	.L88
 950 001a F8E7     		b	.L91
 951              	.L112:
 263:Robot_arm.c   **** 			}
 264:Robot_arm.c   **** 			continue;
 265:Robot_arm.c   **** 		}
 266:Robot_arm.c   **** 
 267:Robot_arm.c   **** 		if(Command == M1_R){
 952              		.loc 1 267 0
 953 001c 012B     		cmp	r3, #1
 954 001e 07D1     		bne	.L113
 955 0020 01E0     		b	.L93
 956              	.L95:
 268:Robot_arm.c   **** 			while(Command == M1_R){
 269:Robot_arm.c   **** 				m1_right_unit();
 957              		.loc 1 269 0
 958 0022 FFF7FEFF 		bl	m1_right_unit
 959              	.LVL68:
 960              	.L93:
 268:Robot_arm.c   **** 			while(Command == M1_R){
 961              		.loc 1 268 0
 962 0026 1F4B     		ldr	r3, .L117
 963 0028 1B78     		ldrb	r3, [r3]	@ zero_extendqisi2
 964 002a 012B     		cmp	r3, #1
 965 002c F9D0     		beq	.L95
 966 002e EAE7     		b	.L88
 967              	.L113:
 270:Robot_arm.c   **** 			}
 271:Robot_arm.c   **** 			continue;
 272:Robot_arm.c   **** 		}
 273:Robot_arm.c   **** 
 274:Robot_arm.c   **** 		if(Command == M2_F){
 968              		.loc 1 274 0
 969 0030 022B     		cmp	r3, #2
 970 0032 07D1     		bne	.L114
ARM GAS  C:\Users\lab512\AppData\Local\Temp\ccAR0DOr.s 			page 23


 971 0034 01E0     		b	.L96
 972              	.L98:
 275:Robot_arm.c   **** 			while(Command == M2_F){
 276:Robot_arm.c   **** 				m2_forward_unit();
 973              		.loc 1 276 0
 974 0036 FFF7FEFF 		bl	m2_forward_unit
 975              	.LVL69:
 976              	.L96:
 275:Robot_arm.c   **** 			while(Command == M2_F){
 977              		.loc 1 275 0
 978 003a 1A4B     		ldr	r3, .L117
 979 003c 1B78     		ldrb	r3, [r3]	@ zero_extendqisi2
 980 003e 022B     		cmp	r3, #2
 981 0040 F9D0     		beq	.L98
 982 0042 E0E7     		b	.L88
 983              	.L114:
 277:Robot_arm.c   **** 			}
 278:Robot_arm.c   **** 			continue;
 279:Robot_arm.c   **** 		}
 280:Robot_arm.c   **** 
 281:Robot_arm.c   **** 		if(Command == M2_B){
 984              		.loc 1 281 0
 985 0044 032B     		cmp	r3, #3
 986 0046 07D1     		bne	.L115
 987 0048 01E0     		b	.L99
 988              	.L101:
 282:Robot_arm.c   **** 			while(Command == M2_B){
 283:Robot_arm.c   **** 				m2_backward_unit();
 989              		.loc 1 283 0
 990 004a FFF7FEFF 		bl	m2_backward_unit
 991              	.LVL70:
 992              	.L99:
 282:Robot_arm.c   **** 			while(Command == M2_B){
 993              		.loc 1 282 0
 994 004e 154B     		ldr	r3, .L117
 995 0050 1B78     		ldrb	r3, [r3]	@ zero_extendqisi2
 996 0052 032B     		cmp	r3, #3
 997 0054 F9D0     		beq	.L101
 998 0056 D6E7     		b	.L88
 999              	.L115:
 284:Robot_arm.c   **** 			}
 285:Robot_arm.c   **** 			continue;
 286:Robot_arm.c   **** 		}
 287:Robot_arm.c   **** 
 288:Robot_arm.c   **** 		if(Command == M3_U){
 1000              		.loc 1 288 0
 1001 0058 042B     		cmp	r3, #4
 1002 005a 02D1     		bne	.L102
 1003              	.L103:
 289:Robot_arm.c   **** 			while(Command == M3_U){
 1004              		.loc 1 289 0 discriminator 1
 1005 005c 042B     		cmp	r3, #4
 1006 005e FDD0     		beq	.L103
 1007 0060 D1E7     		b	.L88
 1008              	.L102:
 290:Robot_arm.c   **** 				// m3_upward_unit();
 291:Robot_arm.c   **** 			}
ARM GAS  C:\Users\lab512\AppData\Local\Temp\ccAR0DOr.s 			page 24


 292:Robot_arm.c   **** 			continue;
 293:Robot_arm.c   **** 		}
 294:Robot_arm.c   **** 
 295:Robot_arm.c   **** 		if(Command == M3_D){
 1009              		.loc 1 295 0
 1010 0062 052B     		cmp	r3, #5
 1011 0064 02D1     		bne	.L104
 1012              	.L105:
 296:Robot_arm.c   **** 			while(Command == M3_D){
 1013              		.loc 1 296 0 discriminator 1
 1014 0066 052B     		cmp	r3, #5
 1015 0068 FDD0     		beq	.L105
 1016 006a CCE7     		b	.L88
 1017              	.L104:
 297:Robot_arm.c   **** 				// m3_downward_unit();
 298:Robot_arm.c   **** 			}
 299:Robot_arm.c   **** 			continue;
 300:Robot_arm.c   **** 		}
 301:Robot_arm.c   **** 
 302:Robot_arm.c   **** 		if(Command == M4_U){
 1018              		.loc 1 302 0
 1019 006c 062B     		cmp	r3, #6
 1020 006e 02D1     		bne	.L106
 1021              	.L107:
 303:Robot_arm.c   **** 			while(Command == M4_U){
 1022              		.loc 1 303 0 discriminator 1
 1023 0070 062B     		cmp	r3, #6
 1024 0072 FDD0     		beq	.L107
 1025 0074 C7E7     		b	.L88
 1026              	.L106:
 304:Robot_arm.c   **** 				// m4_upward_unit();
 305:Robot_arm.c   **** 			}
 306:Robot_arm.c   **** 			continue;
 307:Robot_arm.c   **** 		}
 308:Robot_arm.c   **** 
 309:Robot_arm.c   **** 		if(Command == M4_D){
 1027              		.loc 1 309 0
 1028 0076 072B     		cmp	r3, #7
 1029 0078 02D1     		bne	.L108
 1030              	.L109:
 310:Robot_arm.c   **** 			while(Command == M4_D){
 1031              		.loc 1 310 0 discriminator 1
 1032 007a 072B     		cmp	r3, #7
 1033 007c FDD0     		beq	.L109
 1034 007e C2E7     		b	.L88
 1035              	.L108:
 311:Robot_arm.c   **** 				// m4_downward_unit();
 312:Robot_arm.c   **** 			}
 313:Robot_arm.c   **** 			continue;
 314:Robot_arm.c   **** 		}
 315:Robot_arm.c   **** 
 316:Robot_arm.c   **** 		if(Command == DROP){
 1036              		.loc 1 316 0
 1037 0080 082B     		cmp	r3, #8
 1038 0082 02D1     		bne	.L110
 317:Robot_arm.c   **** 			drop();
 1039              		.loc 1 317 0
ARM GAS  C:\Users\lab512\AppData\Local\Temp\ccAR0DOr.s 			page 25


 1040 0084 FFF7FEFF 		bl	drop
 1041              	.LVL71:
 318:Robot_arm.c   **** 			continue;
 1042              		.loc 1 318 0
 1043 0088 BDE7     		b	.L88
 1044              	.L110:
 319:Robot_arm.c   **** 		}
 320:Robot_arm.c   **** 
 321:Robot_arm.c   **** 		if(Command == GRAB){
 1045              		.loc 1 321 0
 1046 008a 092B     		cmp	r3, #9
 1047 008c 02D1     		bne	.L111
 322:Robot_arm.c   **** 			grab();
 1048              		.loc 1 322 0
 1049 008e FFF7FEFF 		bl	grab
 1050              	.LVL72:
 323:Robot_arm.c   **** 			continue;
 1051              		.loc 1 323 0
 1052 0092 B8E7     		b	.L88
 1053              	.L111:
 324:Robot_arm.c   **** 		}
 325:Robot_arm.c   **** 
 326:Robot_arm.c   **** 		if(Command == RESET_INIT){
 1054              		.loc 1 326 0
 1055 0094 0A2B     		cmp	r3, #10
 1056 0096 B6D0     		beq	.L88
 327:Robot_arm.c   **** 			// reset();
 328:Robot_arm.c   **** 			continue;
 329:Robot_arm.c   **** 		}
 330:Robot_arm.c   **** 		if(Command == PAUSE){
 1057              		.loc 1 330 0
 1058 0098 0B2B     		cmp	r3, #11
 1059 009a B4D1     		bne	.L88
 331:Robot_arm.c   **** 			pause();
 1060              		.loc 1 331 0
 1061 009c FFF7FEFF 		bl	pause
 1062              	.LVL73:
 332:Robot_arm.c   **** 			continue;
 1063              		.loc 1 332 0
 1064 00a0 B1E7     		b	.L88
 1065              	.L118:
 1066 00a2 00BF     		.align	2
 1067              	.L117:
 1068 00a4 00000000 		.word	Command
 1069              		.cfi_endproc
 1070              	.LFE82:
 1071              		.size	steering_engine_controller, .-steering_engine_controller
 1072              		.comm	Command,1,1
 1073              		.global	cur_pos_5
 1074              		.global	cur_pos_4
 1075              		.global	cur_pos_3
 1076              		.global	cur_pos_2
 1077              		.global	cur_pos_1
 1078              		.data
 1079              		.align	2
 1080              		.set	.LANCHOR0,. + 0
 1081              		.type	cur_pos_1, %object
ARM GAS  C:\Users\lab512\AppData\Local\Temp\ccAR0DOr.s 			page 26


 1082              		.size	cur_pos_1, 4
 1083              	cur_pos_1:
 1084 0000 3A020000 		.word	570
 1085              		.type	cur_pos_2, %object
 1086              		.size	cur_pos_2, 4
 1087              	cur_pos_2:
 1088 0004 2C010000 		.word	300
 1089              		.type	cur_pos_3, %object
 1090              		.size	cur_pos_3, 4
 1091              	cur_pos_3:
 1092 0008 84030000 		.word	900
 1093              		.type	cur_pos_4, %object
 1094              		.size	cur_pos_4, 4
 1095              	cur_pos_4:
 1096 000c AA000000 		.word	170
 1097              		.type	cur_pos_5, %object
 1098              		.size	cur_pos_5, 4
 1099              	cur_pos_5:
 1100 0010 58020000 		.word	600
 1101              		.text
 1102              	.Letext0:
 1103              		.file 2 "d:\\psoccreator4.2\\psoc creator\\4.2\\psoc creator\\import\\gnu\\arm\\5.4.1\\arm-none-ea
 1104              		.file 3 "d:\\psoccreator4.2\\psoc creator\\4.2\\psoc creator\\import\\gnu\\arm\\5.4.1\\arm-none-ea
 1105              		.file 4 "Generated_Source\\PSoC5/core_cm3.h"
 1106              		.file 5 "defs.h"
 1107              		.file 6 "Generated_Source\\PSoC5/CyLib.h"